(dp0
(S'orig_spgr_mag'
p1
F28.0
I01
S'07-10-15-20-30'
p2
tp3
(dp4
S'observed'
p5
(lp6
(lp7
F47545265.14236138
aF54702549.43002609
aF52.29246199128734
aF41185982.15269413
aF50513008.31617228
aF386.86554507466036
aF41272149.33697787
aF660427.7254227996
aF44994432.48243566
aF35108057.310876034
aF12203.387415566684
aasS'dates'
p8
(lp9
cdatetime
date
p10
(S'\x07\xe0\x03\x02'
p11
tp12
Rp13
asS'model'
p14
(lp15
(lp16
F670.9880233308091
aF679.6070208220749
aF839.1795370951206
aF849.1715509042376
aF1019.0734093607639
aF1091.4657176118637
aF1168.7627758058572
aF1312.4804986432905
aF1429.5069688139533
aF1445.8457942905764
aF1645.2970595777902
aass(g1
F28.0
I00
S'07-10-15-20-30'
p17
tp18
(dp19
g5
(lp20
(lp21
F708.9887255457431
aF700.27662664993
aF868.8068162921821
aF810.9988035869601
aF1040.2099853676575
aF1212.2275738512299
aF1346.0371462351773
aF1525.9124799386611
aF1609.3783832347283
aF1680.2350413149657
aF1948.58273992776
aasg8
(lp22
g13
asg14
(lp23
(lp24
F670.9880233308091
aF679.6070208220749
aF839.1795370951206
aF849.1715509042376
aF1019.0734093607639
aF1091.4657176118637
aF1168.7627758058572
aF1312.4804986432905
aF1429.5069688139533
aF1445.8457942905764
aF1645.2970595777902
aass(S'orig_spgr_mag'
p25
F14.0
I00
S'07-15-30'
p26
tp27
(dp28
g5
(lp29
(lp30
F755.6241083352963
aF743.0758123546192
aF946.6647095742367
aF853.4143925466807
aF1096.5981834638544
aF1289.4206823143043
aF1396.3499706222995
aF1671.118616195548
aF1627.288388824452
aF1883.6649119857707
aF2064.08115239587
aasg8
(lp31
g10
(S'\x07\xe0\x03\x02'
p32
tp33
Rp34
asg14
(lp35
(lp36
F670.9880233308091
aF679.6070208220749
aF839.1795370951206
aF849.1715509042376
aF1019.0734093607639
aF1091.4657176118637
aF1168.7627758058572
aF1312.4804986432905
aF1429.5069688139533
aF1445.8457942905764
aF1645.2970595777902
aass(g25
F14.0
I01
S'07-15-30'
p37
tp38
(dp39
g5
(lp40
(lp41
F11563763.181628251
aF11219903.935863003
aF56.961065915045246
aF12196885.259675033
aF11953203.754991414
aF413.28964604070967
aF7913274.900445348
aF740444.0922902703
aF8580103.663623316
aF6568428.378796292
aF12664.401577805376
aasg8
(lp42
g34
asg14
(lp43
(lp44
F670.9880233308091
aF679.6070208220749
aF839.1795370951206
aF849.1715509042376
aF1019.0734093607639
aF1091.4657176118637
aF1168.7627758058572
aF1312.4804986432905
aF1429.5069688139533
aF1445.8457942905764
aF1645.2970595777902
aass(S'orig_spgr_mag'
p45
F14.0
I01
S'07-10-15-20-30'
p46
tp47
(dp48
g5
(lp49
(lp50
F24673212.476945397
aF28311328.73477997
aF56.36298569420328
aF26856589.999866467
aF28460696.124891497
aF385.44601374653257
aF20055334.724610507
aF747830.2340323746
aF19453680.37003775
aF21307921.511521235
aF12612.542377786964
aasg8
(lp51
g10
(S'\x07\xe0\x03\x02'
p52
tp53
Rp54
asg14
(lp55
(lp56
F670.9880233308091
aF679.6070208220749
aF839.1795370951206
aF849.1715509042376
aF1019.0734093607639
aF1091.4657176118637
aF1168.7627758058572
aF1312.4804986432905
aF1429.5069688139533
aF1445.8457942905764
aF1645.2970595777902
aass(g45
F14.0
I00
S'07-10-15-20-30'
p57
tp58
(dp59
g5
(lp60
(lp61
F732.3489918920671
aF743.8845997904295
aF904.1147718079118
aF808.464888617328
aF1004.9844918785637
aF1215.981847361655
aF1340.4527370153223
aF1614.8272153893224
aF1723.9010982699303
aF1835.8480496542477
aF1964.5134566712707
aasg8
(lp62
g54
asg14
(lp63
(lp64
F670.9880233308091
aF679.6070208220749
aF839.1795370951206
aF849.1715509042376
aF1019.0734093607639
aF1091.4657176118637
aF1168.7627758058572
aF1312.4804986432905
aF1429.5069688139533
aF1445.8457942905764
aF1645.2970595777902
aass.