(dp0
(S'seir_mag'
p1
I4000
I01
tp2
(dp3
S'observed'
p4
(lp5
(lp6
F658.9916381835938
aF647.8743896484375
aF733.6759033203125
aF840.6091918945312
aF960.6359252929688
aF1810.5877685546875
aF1139.37548828125
aF1300.724609375
aF1497.35498046875
aF54.331233978271484
aF1642.3973388671875
aF279.8771667480469
aa(lp7
F631.1669921875
aF630.8622436523438
aF719.1376342773438
aF804.4856567382812
aF909.1617431640625
aF1719.674560546875
aF1094.931396484375
aF1268.6466064453125
aF1469.7396240234375
aF150.564208984375
aF1610.107177734375
aF36.60820388793945
aa(lp8
F649.5521850585938
aF652.0779418945312
aF722.5990600585938
aF835.9512939453125
aF956.97607421875
aF1850.0428466796875
aF1131.695068359375
aF1246.4368896484375
aF1523.5010986328125
aF5.073271751403809
aF1555.3375244140625
aF34.86404800415039
aa(lp9
F652.4895629882812
aF637.97705078125
aF714.3849487304688
aF810.271728515625
aF930.5214233398438
aF1742.6942138671875
aF1155.3216552734375
aF1225.6470947265625
aF1482.50634765625
aF17.278547286987305
aF1530.379150390625
aF266.4360046386719
aa(lp10
F666.49560546875
aF614.782958984375
aF720.3953247070312
aF793.7127685546875
aF899.79052734375
aF1764.6964111328125
aF1108.140380859375
aF1187.6220703125
aF1443.6517333984375
aF0.0
aF1556.1800537109375
aF16.33733558654785
aa(lp11
F613.2261962890625
aF613.095458984375
aF695.446533203125
aF774.0107421875
aF870.7268676757812
aF1674.5233154296875
aF1084.4544677734375
aF1194.9794921875
aF1437.3486328125
aF46.77882766723633
aF1458.1395263671875
aF81.40105438232422
aa(lp12
F655.4432983398438
aF615.8093872070312
aF727.7244873046875
aF802.3091430664062
aF884.9522705078125
aF1804.2183837890625
aF1071.975830078125
aF1259.5667724609375
aF1542.7357177734375
aF75.378173828125
aF1569.5286865234375
aF69.47979736328125
aa(lp13
F622.560302734375
aF620.3720703125
aF697.2840576171875
aF793.9146728515625
aF865.8729858398438
aF1717.426513671875
aF1090.436767578125
aF1226.0584716796875
aF1447.08203125
aF48.605716705322266
aF1536.155029296875
aF32.097747802734375
aa(lp14
F654.074462890625
aF656.9037475585938
aF742.925537109375
aF806.6741943359375
aF921.1013793945312
aF1721.9072265625
aF1104.0079345703125
aF1284.6356201171875
aF1443.8651123046875
aF1669.5751953125
aF1611.8697509765625
aF1070.7781982421875
aa(lp15
F615.8662719726562
aF596.1807861328125
aF695.9959716796875
aF762.89501953125
aF862.1226806640625
aF1619.426513671875
aF1052.8887939453125
aF1197.912841796875
aF1433.26708984375
aF1548.503662109375
aF1498.598876953125
aF1769.023681640625
aa(lp16
F677.934814453125
aF666.6106567382812
aF769.3712768554688
aF838.6007690429688
aF955.7493286132812
aF1800.4510498046875
aF1124.9776611328125
aF1318.295166015625
aF1508.159912109375
aF83.68013000488281
aF1668.7247314453125
aF32.055511474609375
aa(lp17
F607.0731201171875
aF606.4905395507812
aF697.6433715820312
aF760.9925537109375
aF883.4369506835938
aF1645.732666015625
aF1078.85693359375
aF1236.8516845703125
aF1394.5804443359375
aF1613.648681640625
aF1531.9781494140625
aF1831.0621337890625
aa(lp18
F615.4166870117188
aF609.8983154296875
aF700.6131591796875
aF777.5828857421875
aF889.4258422851562
aF1662.4364013671875
aF1047.428955078125
aF1228.1011962890625
aF1421.995361328125
aF1604.718994140625
aF1577.73388671875
aF1465.83935546875
aa(lp19
F643.81787109375
aF617.9965209960938
aF721.2301025390625
aF779.5416870117188
aF895.4168701171875
aF1701.65087890625
aF1069.135498046875
aF1186.3388671875
aF1468.918701171875
aF8.106368064880371
aF1520.583740234375
aF56.88763427734375
aa(lp20
F609.7533569335938
aF609.7022705078125
aF693.6468505859375
aF780.2697143554688
aF854.681396484375
aF1650.6749267578125
aF1088.081787109375
aF1131.8797607421875
aF1392.720947265625
aF12.553962707519531
aF1397.8375244140625
aF99.3849868774414
aa(lp21
F629.1505737304688
aF604.5596923828125
aF701.16259765625
aF766.6315307617188
aF872.1025390625
aF1718.507568359375
aF1064.3619384765625
aF1204.5830078125
aF1449.357177734375
aF101.38844299316406
aF1528.42138671875
aF76.62483978271484
aa(lp22
F613.5697631835938
aF589.8106079101562
aF691.6165161132812
aF775.7951049804688
aF839.3538818359375
aF1632.19384765625
aF1035.9222412109375
aF1179.0897216796875
aF1387.6180419921875
aF1555.920654296875
aF1487.197509765625
aF1789.41357421875
aa(lp23
F609.9540405273438
aF601.3074951171875
aF687.4973754882812
aF759.2581787109375
aF858.4996337890625
aF1616.9278564453125
aF1061.11083984375
aF1176.032470703125
aF1366.635009765625
aF1530.2413330078125
aF1495.6920166015625
aF1680.7174072265625
aa(lp24
F607.1316528320312
aF591.767822265625
aF679.972900390625
aF765.1707763671875
aF843.6878662109375
aF1614.9140625
aF1001.55322265625
aF1138.1402587890625
aF1310.6539306640625
aF1477.5517578125
aF1445.6019287109375
aF1672.5682373046875
aa(lp25
F629.404296875
aF605.2978515625
aF713.9398193359375
aF780.2453002929688
aF854.4495849609375
aF1755.8125
aF1081.3221435546875
aF1163.6268310546875
aF1416.8173828125
aF0.25581544637680054
aF1312.3193359375
aF21.839590072631836
aa(lp26
F680.1414794921875
aF654.0479125976562
aF763.7763061523438
aF825.2371826171875
aF950.9523315429688
aF1754.548583984375
aF1114.887939453125
aF1255.621337890625
aF1518.87353515625
aF53.90782928466797
aF1567.780517578125
aF82.9794921875
aa(lp27
F597.9263305664062
aF603.9142456054688
aF683.5479125976562
aF775.5064086914062
aF880.60302734375
aF1712.9949951171875
aF1063.0810546875
aF1242.802001953125
aF1435.2176513671875
aF40.77191925048828
aF1517.9195556640625
aF41.27759552001953
aa(lp28
F681.3113403320312
aF652.1519775390625
aF787.76953125
aF861.1569213867188
aF978.1710815429688
aF1872.00439453125
aF1213.656494140625
aF1289.3975830078125
aF1618.7635498046875
aF25.882966995239258
aF1605.75390625
aF97.62570190429688
aa(lp29
F658.9520874023438
aF656.0755004882812
aF745.2130126953125
aF824.3384399414062
aF959.5050048828125
aF1736.1412353515625
aF1155.1470947265625
aF1314.4691162109375
aF1611.490478515625
aF3.0379929542541504
aF1670.0457763671875
aF31.484256744384766
aa(lp30
F709.8238525390625
aF716.5160522460938
aF803.7257080078125
aF894.9376220703125
aF1046.3487548828125
aF1984.8497314453125
aF1220.330078125
aF1424.313232421875
aF1755.2158203125
aF13.926788330078125
aF549.9284057617188
aF17.732980728149414
aa(lp31
F684.65185546875
aF657.6838989257812
aF773.6400756835938
aF860.3297729492188
aF977.8522338867188
aF1807.4793701171875
aF1197.538330078125
aF1241.1075439453125
aF1541.84814453125
aF21.9228458404541
aF1593.897705078125
aF81.28067779541016
aa(lp32
F714.3076171875
aF767.7092895507812
aF833.7305297851562
aF930.7701416015625
aF1088.7823486328125
aF2011.75830078125
aF1317.868896484375
aF1491.134033203125
aF1767.4534912109375
aF71.337158203125
aF550.92236328125
aF1.9582710266113281
aasS'dates'
p33
(lp34
cdatetime
date
p35
(S'\x07\xde\x07\x12'
p36
tp37
Rp38
ag35
(S'\x07\xde\x08\x01'
p39
tp40
Rp41
ag35
(S'\x07\xde\n\x17'
p42
tp43
Rp44
ag35
(S'\x07\xde\n\x1b'
p45
tp46
Rp47
ag35
(S'\x07\xde\x0c\n'
p48
tp49
Rp50
ag35
(S'\x07\xde\x0c\x11'
p51
tp52
Rp53
ag35
(S'\x07\xdf\x01\x07'
p54
tp55
Rp56
ag35
(S'\x07\xdf\x01\x14'
p57
tp58
Rp59
ag35
(S'\x07\xdf\x01\x1b'
p60
tp61
Rp62
ag35
(S'\x07\xdf\x02\x0b'
p63
tp64
Rp65
ag35
(S'\x07\xdf\x02\r'
p66
tp67
Rp68
ag35
(S'\x07\xdf\x02\x12'
p69
tp70
Rp71
ag35
(S'\x07\xdf\x02\x17'
p72
tp73
Rp74
ag35
(S'\x07\xdf\x02\x18'
p75
tp76
Rp77
ag35
(S'\x07\xdf\x02\x1b'
p78
tp79
Rp80
ag35
(S'\x07\xdf\x03\x02'
p81
tp82
Rp83
ag35
(S'\x07\xdf\x03\x03'
p84
tp85
Rp86
ag35
(S'\x07\xdf\x03\x04'
p87
tp88
Rp89
ag35
(S'\x07\xdf\x03\x05'
p90
tp91
Rp92
ag35
(S'\x07\xdf\x03\n'
p93
tp94
Rp95
ag35
(S'\x07\xdf\x05\x0b'
p96
tp97
Rp98
ag35
(S'\x07\xdf\x05\x0c'
p99
tp100
Rp101
ag35
(S'\x07\xdf\x05\x14'
p102
tp103
Rp104
ag35
(S'\x07\xdf\x06\x03'
p105
tp106
Rp107
ag35
(S'\x07\xdf\x06\x08'
p108
tp109
Rp110
ag35
(S'\x07\xdf\x06\x18'
p111
tp112
Rp113
ag35
(S'\x07\xdf\x06\x1e'
p114
tp115
Rp116
asS'model'
p117
(lp118
(lp119
F688.171763942
aF679.495556964
aF859.812575253
aF849.753062529
aF1031.77187576
aF1665.56940249
aF1105.12636279
aF1183.2742516
aF1328.73993543
aF1463.63581386
aF1447.07252416
aF1624.56626655
aa(lp120
F673.941272768
aF665.360589553
aF842.131935005
aF832.18509213
aF1010.6722636
aF1631.88444587
aF1082.42865012
aF1159.16192695
aF1301.72311358
aF1434.07495082
aF1417.88440995
aF1592.10223402
aa(lp121
F689.128314157
aF680.445770371
aF861.000973344
aF850.933980231
aF1033.19000382
aF1667.83328415
aF1106.65201654
aF1184.89482486
aF1330.5557043
aF1465.6224196
aF1449.03403787
aF1626.7477113
aa(lp122
F677.714527699
aF669.108286331
aF846.820186367
aF836.843214507
aF1016.26730573
aF1640.81711564
aF1088.44714976
aF1165.55597551
aF1308.88740835
aF1441.91426967
aF1425.62499278
aF1600.71217814
aa(lp123
F666.441567926
aF657.912181296
aF832.813194785
aF822.926786715
aF999.550663865
aF1614.1276883
aF1070.46599894
aF1146.45183625
aF1287.48183906
aF1418.49098885
aF1402.49648087
aF1574.98474783
aa(lp124
F654.387036172
aF645.941502207
aF817.833747879
aF808.046031483
aF981.671920339
aF1585.58025929
aF1051.23711925
aF1126.01874211
aF1264.58690822
aF1393.43503368
aF1377.75501366
aF1547.45870647
aa(lp125
F666.441567926
aF657.912181296
aF832.813194785
aF822.926786715
aF999.550663865
aF1614.1276883
aF1070.46599894
aF1146.45183625
aF1287.48183906
aF1418.49098885
aF1402.49648087
aF1574.98474783
aa(lp126
F663.645223431
aF655.135133761
aF829.338468295
aF819.474782775
aF995.403540555
aF1607.50612215
aF1066.00548954
aF1141.7122925
aF1282.17129147
aF1412.67945724
aF1396.75796884
aF1568.60079467
aa(lp127
F671.121579576
aF662.560104673
aF838.628393636
aF828.704186455
aF1006.49097676
aF1625.20871856
aF1077.93105437
aF1154.38347021
aF1296.3690105
aF1428.21619121
aF1412.09938713
aF1585.66719684
aa(lp128
F639.774319866
aF631.432789225
aF799.673493196
aF790.00802345
aF959.994530076
aF1550.9635351
aF1027.92593294
aF1101.24300705
aF1236.82564563
aF1363.04924962
aF1347.74945023
aF1514.06981932
aa(lp129
F674.883121426
aF666.296042972
aF843.302189785
aF833.347809067
aF1012.06888045
aF1634.11421428
aF1083.93094771
aF1160.75799733
aF1303.51145409
aF1436.03181697
aF1419.81663719
aF1594.25151473
aa(lp130
F637.96497955
aF629.636508645
aF797.424749247
aF787.774617961
aF957.310095791
aF1546.67643577
aF1025.03942286
aF1098.17478621
aF1233.38765867
aF1359.28591402
aF1344.03311583
aF1509.93395358
aa(lp131
F637.96497955
aF629.636508645
aF797.424749247
aF787.774617961
aF957.310095791
aF1546.67643577
aF1025.03942286
aF1098.17478621
aF1233.38765867
aF1359.28591402
aF1344.03311583
aF1509.93395358
aa(lp132
F659.004039957
aF650.526183922
aF823.571187797
aF813.745443649
aF988.520040645
aF1596.51515252
aF1058.60210409
aF1133.84536891
aF1273.35654899
aF1403.03279213
aF1387.23240833
aF1558.00329823
aa(lp133
F634.35775019
aF626.055437006
aF792.941393904
aF783.321976593
aF951.957983238
aF1538.12878272
aF1019.28458331
aF1092.0574281
aF1226.53304118
aF1351.78240336
aF1336.62325878
aF1501.6872816
aa(lp134
F642.495499733
aF634.134403725
aF803.055457168
aF793.367003241
aF964.031672019
aF1557.41080458
aF1032.26708094
aF1105.85728615
aF1241.99599706
aF1368.70875338
aF1353.33823362
aF1520.28930672
aa(lp135
F622.739316795
aF614.52235813
aF778.500152213
aF768.980885758
aF934.71735119
aF1510.59243343
aF1000.74814354
aF1072.35110032
aF1204.45146682
aF1327.60848459
aF1312.7505189
aF1475.11552536
aa(lp136
F650.710796922
aF642.29118304
aF813.265224961
aF803.507991654
aF976.218830796
aF1576.87261023
aF1045.37270568
aF1119.78637809
aF1257.60358265
aF1385.79194693
aF1370.20768656
aF1539.06102569
aa(lp137
F621.852223492
aF613.641851604
aF777.397472908
aF767.88593065
aF933.400853763
aF1508.48962438
aF999.332791839
aF1070.84628179
aF1202.76525264
aF1325.7623665
aF1310.927367
aF1473.08605988
aa(lp138
F629.870139273
aF621.600593744
aF787.363642426
aF777.782685793
aF945.299193972
aF1527.4938813
aF1012.12504895
aF1084.44643656
aF1218.00472724
aF1342.44634926
aF1327.40361964
aF1491.42583056
aa(lp139
F695.851757757
aF687.124969586
aF869.353811663
aF859.234567476
aF1043.15727321
aF1683.74449568
aF1117.3754347
aF1196.28482718
aF1343.31756984
aF1479.58447947
aF1462.81960112
aF1642.07819
aa(lp140
F648.878453253
aF640.471819895
aF810.988091757
aF801.246119949
aF973.500737447
aF1572.53217883
aF1042.44967086
aF1116.67982187
aF1254.12269293
aF1381.98208589
aF1366.44552875
aF1534.87482363
aa(lp141
F703.594988685
aF694.81788304
aF878.973089801
aF868.794374373
aF1054.63520025
aF1702.06637826
aF1129.7249941
aF1209.40080686
aF1358.01320381
aF1495.66108131
aF1478.69265812
aF1659.72846287
aa(lp142
F692.003873149
aF683.302343091
aF864.573459164
aF854.484048684
aF1037.45303314
aF1674.63864165
aF1111.23836553
aF1189.7663924
aF1336.01403499
aF1471.59418945
aF1454.93034918
aF1633.30497171
aa(lp143
F741.247170705
aF732.234896056
aF925.740620315
aF915.283218525
aF1110.43108934
aF1791.12010004
aF1189.77122222
aF1273.15506342
aF1429.44468364
aF1573.78909597
aF1555.82674272
aF1745.4747536
aa(lp144
F703.594988685
aF694.81788304
aF878.973089801
aF868.794374373
aF1054.63520025
aF1702.06637826
aF1129.7249941
aF1209.40080686
aF1358.01320381
aF1495.66108131
aF1478.69265812
aF1659.72846287
aa(lp145
F678.660285009
aF670.047663654
aF847.995264847
aF838.010770121
aF1017.66964168
aF1643.05595244
aF1089.95565646
aF1167.15856024
aF1310.68304074
aF1443.8790423
aF1427.56500618
aF1602.87001027
aass(S'seir_mag'
p146
I4000
I00
tp147
(dp148
g4
(lp149
(lp150
F701.7910766601562
aF678.9744262695312
aF879.3585815429688
aF860.6377563476562
aF1061.0728759765625
aF1803.9638671875
aF1136.156005859375
aF1234.696533203125
aF1403.274658203125
aF1557.6982421875
aF1507.34033203125
aF1670.5010986328125
aa(lp151
F675.841552734375
aF669.7577514648438
aF861.1996459960938
aF842.6459350585938
aF1028.7926025390625
aF1743.718017578125
aF1112.8983154296875
aF1193.81591796875
aF1375.883056640625
aF1536.07177734375
aF1498.713623046875
aF896.7525024414062
aa(lp152
F682.4487915039062
aF698.3359375
aF853.71826171875
aF868.8348999023438
aF1063.9169921875
aF1818.2091064453125
aF1115.75634765625
aF1215.5159912109375
aF1417.5584716796875
aF1528.4459228515625
aF1488.5665283203125
aF1721.4617919921875
aa(lp153
F668.1109008789062
aF676.1336669921875
aF841.0433349609375
aF829.6399536132812
aF1025.0447998046875
aF1680.320068359375
aF1106.577880859375
aF1185.27783203125
aF1354.549560546875
aF1505.6708984375
aF1441.09326171875
aF1629.9637451171875
aa(lp154
F691.4889526367188
aF657.3314819335938
aF854.0091552734375
aF835.5009765625
aF1017.06787109375
aF1763.4158935546875
aF1084.000732421875
aF1179.6453857421875
aF1378.791015625
aF1498.4791259765625
aF1464.2984619140625
aF1663.3553466796875
aa(lp155
F647.109130859375
aF656.4896850585938
aF828.9125366210938
aF820.3079833984375
aF998.224365234375
aF1673.5491943359375
aF1102.682861328125
aF1150.5281982421875
aF1352.3211669921875
aF1463.39892578125
aF1402.6697998046875
aF1664.7061767578125
aa(lp156
F690.2153930664062
aF655.1276245117188
aF849.8680419921875
aF833.707763671875
aF1024.271728515625
aF1789.173828125
aF1070.4537353515625
aF1179.5865478515625
aF1382.4276123046875
aF1518.310546875
aF1472.164306640625
aF1681.86376953125
aa(lp157
F657.4325561523438
aF667.1983642578125
aF826.6896362304688
aF831.673828125
aF1017.7520141601562
aF1746.453369140625
aF1101.8902587890625
aF1170.733154296875
aF1360.21142578125
aF1453.8365478515625
aF1444.4091796875
aF1384.8582763671875
aa(lp158
F689.9177856445312
aF685.77490234375
aF867.4324951171875
aF842.6121826171875
aF1047.29248046875
aF1703.5262451171875
aF1117.709716796875
aF1200.7705078125
aF1387.953369140625
aF1535.718994140625
aF1468.8551025390625
aF953.2008056640625
aa(lp159
F663.82666015625
aF642.4280395507812
aF828.1054077148438
aF801.2340087890625
aF981.6820068359375
aF1640.9827880859375
aF1083.7425537109375
aF1148.6248779296875
aF1331.9757080078125
aF1449.517578125
aF1417.737060546875
aF1624.323486328125
aa(lp160
F694.4152221679688
aF684.5638427734375
aF879.2792358398438
aF857.4052124023438
aF1054.8778076171875
aF1794.475341796875
aF1138.2266845703125
aF1210.422119140625
aF1404.645263671875
aF1563.572998046875
aF1516.0570068359375
aF828.6054077148438
aa(lp161
F634.603759765625
aF636.786865234375
aF810.9049072265625
aF791.852783203125
aF988.2526245117188
aF1619.1795654296875
aF1076.196533203125
aF1147.9786376953125
aF1312.9346923828125
aF1461.00048828125
aF1397.6131591796875
aF1615.0269775390625
aa(lp162
F644.029052734375
aF646.9376220703125
aF804.4755249023438
aF804.4100341796875
aF997.3970947265625
aF1656.9105224609375
aF1062.92626953125
aF1146.801513671875
aF1319.5948486328125
aF1449.46728515625
aF1432.374267578125
aF1306.81640625
aa(lp163
F669.4895629882812
aF664.4388427734375
aF841.1303100585938
aF828.0213012695312
aF1027.9307861328125
aF1758.9794921875
aF1067.7572021484375
aF1153.695556640625
aF1353.1395263671875
aF1504.9652099609375
aF1441.694580078125
aF1654.671142578125
aa(lp164
F635.386474609375
aF641.2933349609375
aF809.122314453125
aF804.4776000976562
aF966.7733154296875
aF1615.521240234375
aF1071.0904541015625
aF1118.4581298828125
aF1319.5924072265625
aF1451.33935546875
aF1371.58837890625
aF1622.9364013671875
aa(lp165
F662.6008911132812
aF649.4015502929688
aF822.3277587890625
aF816.0506591796875
aF1001.3706665039062
aF1695.5631103515625
aF1074.32080078125
aF1144.5186767578125
aF1341.5640869140625
aF1480.1036376953125
aF1428.3192138671875
aF1577.9112548828125
aa(lp166
F636.2076416015625
aF627.6175537109375
aF802.1992797851562
aF807.7339477539062
aF948.989501953125
aF1627.10205078125
aF1049.7208251953125
aF1111.32080078125
aF1296.97216796875
aF1421.3599853515625
aF1372.51806640625
aF1607.4708251953125
aa(lp167
F672.1788330078125
aF654.0260009765625
aF833.189453125
aF823.0927124023438
aF1007.004638671875
aF1713.2401123046875
aF1102.8692626953125
aF1160.3250732421875
aF1347.9307861328125
aF1470.1591796875
aF1437.6353759765625
aF1563.9207763671875
aa(lp168
F637.7077026367188
aF629.7627563476562
aF798.3389892578125
aF801.7349853515625
aF960.7551879882812
aF1650.5418701171875
aF1013.4057006835938
aF1126.116455078125
aF1275.4195556640625
aF1403.568115234375
aF1378.391357421875
aF1568.079833984375
aa(lp169
F655.9219970703125
aF631.1080322265625
aF820.2178955078125
aF791.59619140625
aF967.1925048828125
aF1635.28759765625
aF1062.8621826171875
aF1139.97265625
aF1303.29736328125
aF1428.0731201171875
aF1381.8890380859375
aF1590.0235595703125
aa(lp170
F711.6419067382812
aF692.8426513671875
aF894.6937866210938
aF868.6294555664062
aF1056.5218505859375
aF1823.570068359375
aF1133.088623046875
aF1219.6268310546875
aF1409.007080078125
aF1545.9447021484375
aF1489.5946044921875
aF1704.15283203125
aa(lp171
F633.6041259765625
aF637.0377197265625
aF813.1524047851562
aF802.1690063476562
aF994.252197265625
aF1665.509033203125
aF1065.9774169921875
aF1141.676025390625
aF1300.992431640625
aF1438.63720703125
aF1401.998779296875
aF1571.49609375
aa(lp172
F709.3426513671875
aF693.169189453125
aF897.3634033203125
aF879.3429565429688
aF1062.0548095703125
aF1779.4432373046875
aF1163.873291015625
aF1237.8302001953125
aF1429.0496826171875
aF1546.4873046875
aF1497.8544921875
aF1730.2061767578125
aa(lp173
F678.1676025390625
aF693.27978515625
aF864.3716430664062
aF858.3961181640625
aF1065.235107421875
aF1775.1619873046875
aF1144.5418701171875
aF1235.2166748046875
aF1430.890380859375
aF1511.113037109375
aF1533.626708984375
aF1668.679443359375
aa(lp174
F753.6885375976562
aF737.6661987304688
aF930.15087890625
aF921.4147338867188
aF1137.3563232421875
aF1929.843017578125
aF1207.7677001953125
aF1309.383544921875
aF1520.07763671875
aF1670.9884033203125
aF1621.1566162109375
aF1846.171142578125
aa(lp175
F712.3323364257812
aF696.8234252929688
aF896.6070556640625
aF873.7982177734375
aF1075.77783203125
aF1786.3890380859375
aF1168.914306640625
aF1228.8265380859375
aF1446.447998046875
aF1610.08056640625
aF1499.7252197265625
aF1787.0906982421875
aa(lp176
F751.5274047851562
aF778.8790283203125
aF964.3427734375
aF961.8909301757812
aF1185.6151123046875
aF1995.930419921875
aF1284.0753173828125
aF1358.1796875
aF1588.609375
aF1713.4322509765625
aF1634.6890869140625
aF661.12744140625
aasg33
(lp177
g38
ag41
ag44
ag47
ag50
ag53
ag56
ag59
ag62
ag65
ag68
ag71
ag74
ag77
ag80
ag83
ag86
ag89
ag92
ag95
ag98
ag101
ag104
ag107
ag110
ag113
ag116
asg117
(lp178
(lp179
F688.171763942
aF679.495556964
aF859.812575253
aF849.753062529
aF1031.77187576
aF1665.56940249
aF1105.12636279
aF1183.2742516
aF1328.73993543
aF1463.63581386
aF1447.07252416
aF1624.56626655
aa(lp180
F673.941272768
aF665.360589553
aF842.131935005
aF832.18509213
aF1010.6722636
aF1631.88444587
aF1082.42865012
aF1159.16192695
aF1301.72311358
aF1434.07495082
aF1417.88440995
aF1592.10223402
aa(lp181
F689.128314157
aF680.445770371
aF861.000973344
aF850.933980231
aF1033.19000382
aF1667.83328415
aF1106.65201654
aF1184.89482486
aF1330.5557043
aF1465.6224196
aF1449.03403787
aF1626.7477113
aa(lp182
F677.714527699
aF669.108286331
aF846.820186367
aF836.843214507
aF1016.26730573
aF1640.81711564
aF1088.44714976
aF1165.55597551
aF1308.88740835
aF1441.91426967
aF1425.62499278
aF1600.71217814
aa(lp183
F666.441567926
aF657.912181296
aF832.813194785
aF822.926786715
aF999.550663865
aF1614.1276883
aF1070.46599894
aF1146.45183625
aF1287.48183906
aF1418.49098885
aF1402.49648087
aF1574.98474783
aa(lp184
F654.387036172
aF645.941502207
aF817.833747879
aF808.046031483
aF981.671920339
aF1585.58025929
aF1051.23711925
aF1126.01874211
aF1264.58690822
aF1393.43503368
aF1377.75501366
aF1547.45870647
aa(lp185
F666.441567926
aF657.912181296
aF832.813194785
aF822.926786715
aF999.550663865
aF1614.1276883
aF1070.46599894
aF1146.45183625
aF1287.48183906
aF1418.49098885
aF1402.49648087
aF1574.98474783
aa(lp186
F663.645223431
aF655.135133761
aF829.338468295
aF819.474782775
aF995.403540555
aF1607.50612215
aF1066.00548954
aF1141.7122925
aF1282.17129147
aF1412.67945724
aF1396.75796884
aF1568.60079467
aa(lp187
F671.121579576
aF662.560104673
aF838.628393636
aF828.704186455
aF1006.49097676
aF1625.20871856
aF1077.93105437
aF1154.38347021
aF1296.3690105
aF1428.21619121
aF1412.09938713
aF1585.66719684
aa(lp188
F639.774319866
aF631.432789225
aF799.673493196
aF790.00802345
aF959.994530076
aF1550.9635351
aF1027.92593294
aF1101.24300705
aF1236.82564563
aF1363.04924962
aF1347.74945023
aF1514.06981932
aa(lp189
F674.883121426
aF666.296042972
aF843.302189785
aF833.347809067
aF1012.06888045
aF1634.11421428
aF1083.93094771
aF1160.75799733
aF1303.51145409
aF1436.03181697
aF1419.81663719
aF1594.25151473
aa(lp190
F637.96497955
aF629.636508645
aF797.424749247
aF787.774617961
aF957.310095791
aF1546.67643577
aF1025.03942286
aF1098.17478621
aF1233.38765867
aF1359.28591402
aF1344.03311583
aF1509.93395358
aa(lp191
F637.96497955
aF629.636508645
aF797.424749247
aF787.774617961
aF957.310095791
aF1546.67643577
aF1025.03942286
aF1098.17478621
aF1233.38765867
aF1359.28591402
aF1344.03311583
aF1509.93395358
aa(lp192
F659.004039957
aF650.526183922
aF823.571187797
aF813.745443649
aF988.520040645
aF1596.51515252
aF1058.60210409
aF1133.84536891
aF1273.35654899
aF1403.03279213
aF1387.23240833
aF1558.00329823
aa(lp193
F634.35775019
aF626.055437006
aF792.941393904
aF783.321976593
aF951.957983238
aF1538.12878272
aF1019.28458331
aF1092.0574281
aF1226.53304118
aF1351.78240336
aF1336.62325878
aF1501.6872816
aa(lp194
F642.495499733
aF634.134403725
aF803.055457168
aF793.367003241
aF964.031672019
aF1557.41080458
aF1032.26708094
aF1105.85728615
aF1241.99599706
aF1368.70875338
aF1353.33823362
aF1520.28930672
aa(lp195
F622.739316795
aF614.52235813
aF778.500152213
aF768.980885758
aF934.71735119
aF1510.59243343
aF1000.74814354
aF1072.35110032
aF1204.45146682
aF1327.60848459
aF1312.7505189
aF1475.11552536
aa(lp196
F650.710796922
aF642.29118304
aF813.265224961
aF803.507991654
aF976.218830796
aF1576.87261023
aF1045.37270568
aF1119.78637809
aF1257.60358265
aF1385.79194693
aF1370.20768656
aF1539.06102569
aa(lp197
F621.852223492
aF613.641851604
aF777.397472908
aF767.88593065
aF933.400853763
aF1508.48962438
aF999.332791839
aF1070.84628179
aF1202.76525264
aF1325.7623665
aF1310.927367
aF1473.08605988
aa(lp198
F629.870139273
aF621.600593744
aF787.363642426
aF777.782685793
aF945.299193972
aF1527.4938813
aF1012.12504895
aF1084.44643656
aF1218.00472724
aF1342.44634926
aF1327.40361964
aF1491.42583056
aa(lp199
F695.851757757
aF687.124969586
aF869.353811663
aF859.234567476
aF1043.15727321
aF1683.74449568
aF1117.3754347
aF1196.28482718
aF1343.31756984
aF1479.58447947
aF1462.81960112
aF1642.07819
aa(lp200
F648.878453253
aF640.471819895
aF810.988091757
aF801.246119949
aF973.500737447
aF1572.53217883
aF1042.44967086
aF1116.67982187
aF1254.12269293
aF1381.98208589
aF1366.44552875
aF1534.87482363
aa(lp201
F703.594988685
aF694.81788304
aF878.973089801
aF868.794374373
aF1054.63520025
aF1702.06637826
aF1129.7249941
aF1209.40080686
aF1358.01320381
aF1495.66108131
aF1478.69265812
aF1659.72846287
aa(lp202
F692.003873149
aF683.302343091
aF864.573459164
aF854.484048684
aF1037.45303314
aF1674.63864165
aF1111.23836553
aF1189.7663924
aF1336.01403499
aF1471.59418945
aF1454.93034918
aF1633.30497171
aa(lp203
F741.247170705
aF732.234896056
aF925.740620315
aF915.283218525
aF1110.43108934
aF1791.12010004
aF1189.77122222
aF1273.15506342
aF1429.44468364
aF1573.78909597
aF1555.82674272
aF1745.4747536
aa(lp204
F703.594988685
aF694.81788304
aF878.973089801
aF868.794374373
aF1054.63520025
aF1702.06637826
aF1129.7249941
aF1209.40080686
aF1358.01320381
aF1495.66108131
aF1478.69265812
aF1659.72846287
aa(lp205
F678.660285009
aF670.047663654
aF847.995264847
aF838.010770121
aF1017.66964168
aF1643.05595244
aF1089.95565646
aF1167.15856024
aF1310.68304074
aF1443.8790423
aF1427.56500618
aF1602.87001027
aass.