(dp0
(S'orig_spgr_mag'
p1
F28.0
I01
S'07-10-15-20-30'
p2
tp3
(dp4
S'observed'
p5
(lp6
(lp7
F721.4281655564587
aF722.467059103237
aF843.8040849824571
aF892.7578276668684
aF1096.6953380847133
aF1217.658915898461
aF1279.484762775147
aF1403.2542425775682
aF1413.9861722572023
aF1636.8453517476428
aF2033.5330578185733
aasS'dates'
p8
(lp9
cdatetime
date
p10
(S'\x07\xe0\x03\x02'
p11
tp12
Rp13
asS'model'
p14
(lp15
(lp16
F670.9880233308091
aF679.6070208220749
aF839.1795370951206
aF849.1715509042376
aF1019.0734093607639
aF1091.4657176118637
aF1168.7627758058572
aF1312.4804986432905
aF1429.5069688139533
aF1445.8457942905764
aF1645.2970595777902
aass(g1
F28.0
I00
S'07-10-15-20-30'
p17
tp18
(dp19
g5
(lp20
(lp21
F708.9887255457431
aF700.27662664993
aF868.8068162921821
aF810.9988035869601
aF1040.2099853676575
aF1212.2275738512299
aF1346.0371462351773
aF1525.9124799386611
aF1609.3783832347283
aF1680.2350413149657
aF1948.58273992776
aasg8
(lp22
g13
asg14
(lp23
(lp24
F670.9880233308091
aF679.6070208220749
aF839.1795370951206
aF849.1715509042376
aF1019.0734093607639
aF1091.4657176118637
aF1168.7627758058572
aF1312.4804986432905
aF1429.5069688139533
aF1445.8457942905764
aF1645.2970595777902
aass(S'orig_spgr_mag'
p25
F14.0
I00
S'07-15-30'
p26
tp27
(dp28
g5
(lp29
(lp30
F755.6241083352963
aF743.0758123546192
aF946.6647095742367
aF853.4143925466807
aF1096.5981834638544
aF1289.4206823143043
aF1396.3499706222995
aF1671.118616195548
aF1627.288388824452
aF1883.6649119857707
aF2064.08115239587
aasg8
(lp31
g10
(S'\x07\xe0\x03\x02'
p32
tp33
Rp34
asg14
(lp35
(lp36
F670.9880233308091
aF679.6070208220749
aF839.1795370951206
aF849.1715509042376
aF1019.0734093607639
aF1091.4657176118637
aF1168.7627758058572
aF1312.4804986432905
aF1429.5069688139533
aF1445.8457942905764
aF1645.2970595777902
aass(g25
F14.0
I01
S'07-15-30'
p37
tp38
(dp39
g5
(lp40
(lp41
F768.9023939589788
aF766.7464239773857
aF919.3481395266141
aF939.6876929822972
aF1156.3753017537124
aF1295.2539278578563
aF1327.0050783025044
aF1536.2387285631598
aF1428.8067554254371
aF1834.7994918335964
aF2154.38314271061
aasg8
(lp42
g34
asg14
(lp43
(lp44
F670.9880233308091
aF679.6070208220749
aF839.1795370951206
aF849.1715509042376
aF1019.0734093607639
aF1091.4657176118637
aF1168.7627758058572
aF1312.4804986432905
aF1429.5069688139533
aF1445.8457942905764
aF1645.2970595777902
aass(S'orig_spgr_mag'
p45
F14.0
I01
S'07-10-15-20-30'
p46
tp47
(dp48
g5
(lp49
(lp50
F745.1678581482009
aF767.4995154196477
aF878.1003517363582
aF890.1487291599974
aF1059.5453597251849
aF1221.4521949783098
aF1273.983478728868
aF1484.564683580759
aF1513.8759139347621
aF1788.536733104066
aF2050.790250827837
aasg8
(lp51
g10
(S'\x07\xe0\x03\x02'
p52
tp53
Rp54
asg14
(lp55
(lp56
F670.9880233308091
aF679.6070208220749
aF839.1795370951206
aF849.1715509042376
aF1019.0734093607639
aF1091.4657176118637
aF1168.7627758058572
aF1312.4804986432905
aF1429.5069688139533
aF1445.8457942905764
aF1645.2970595777902
aass(S'orig_spgr_mag'
p57
F14.0
I00
S'07-10-15-20-30'
p58
tp59
(dp60
g5
(lp61
(lp62
F732.3489918920671
aF743.8845997904295
aF904.1147718079118
aF808.464888617328
aF1004.9844918785637
aF1215.981847361655
aF1340.4527370153223
aF1614.8272153893224
aF1723.9010982699303
aF1835.8480496542477
aF1964.5134566712707
aasg8
(lp63
g54
asg14
(lp64
(lp65
F670.9880233308091
aF679.6070208220749
aF839.1795370951206
aF849.1715509042376
aF1019.0734093607639
aF1091.4657176118637
aF1168.7627758058572
aF1312.4804986432905
aF1429.5069688139533
aF1445.8457942905764
aF1645.2970595777902
aass.