(dp0
(S'seir_mag'
p1
I3500
I00
tp2
(dp3
S'observed'
p4
(lp5
(lp6
F560.5046335208486
aF616.3289404528736
aF587.775110412151
aF798.3382587688471
aF990.0007950393805
aF1695.993700120115
aF1124.9191060482826
aF1129.9570437181208
aF1415.7073891205612
aF1585.0561024589929
aF1484.8054256914504
aasS'dates'
p7
(lp8
cdatetime
date
p9
(S'\x07\xde\x07\x1c'
p10
tp11
Rp12
asS'model'
p13
(lp14
(lp15
F681.503430096
aF672.871691943
aF851.527748393
aF841.520707831
aF1021.88524307
aF1649.78609004
aF1094.4905068
aF1171.97610304
aF1316.08089505
aF1449.78524072
aF1433.39674603
aass(S'orig_spgr_mag'
p16
F5.6
I00
tp17
(dp18
g4
(lp19
(lp20
F684.5766260663806
aF673.8726124429747
aF751.8236189544416
aF821.8849643469498
aF932.3087502145199
aF1608.7961779541088
aF1082.0023741841694
aF1194.9738710673541
aF1369.6073166036233
aF1522.6216152671818
aF1557.9044315719573
aa(lp21
F669.0967489012554
aF653.4599830022704
aF722.4015717096548
aF793.6254210171766
aF902.3738696944747
aF1558.7948334356947
aF1049.1957675290507
aF1211.3344219997884
aF1374.4486829396449
aF1523.7131785103795
aF1527.8198519629734
aa(lp22
F718.928153183258
aF693.613081169683
aF790.5259443128193
aF864.2784803560334
aF967.9575313213019
aF1656.8363559138254
aF1131.3443283451743
aF1240.5865185132272
aF1468.1055224082793
aF1603.2374882952915
aF1632.7300569705988
aa(lp23
F757.0614859577419
aF738.9493555879266
aF827.8546476725426
aF919.0163727953762
aF1020.0288696563583
aF1779.3121355509168
aF1190.6982630491284
aF1379.439659644896
aF1561.7607967528452
aF1737.2073862051511
aF1749.1867909243608
aa(lp24
F742.7579270105966
aF727.4686638632855
aF829.1410930190389
aF896.0902702283381
aF1020.3241782574271
aF1750.4529793321465
aF1178.965640599915
aF1311.071965648363
aF1509.7671352143575
aF1687.8443281974833
aF1689.7592096277326
aa(lp25
F689.7437219620798
aF681.9154774445906
aF756.786398505687
aF838.0885603818703
aF947.2079245721196
aF1648.5781474772953
aF1098.7150503808905
aF1269.021536597159
aF1433.028423863359
aF1573.9371716318683
aF1618.4016130253879
aa(lp26
F653.9859276779716
aF655.9370543068164
aF717.427458776805
aF784.9944049828316
aF896.4961226504876
aF1577.653560093308
aF1034.4507895667043
aF1200.8355448734349
aF1362.800860213434
aF1484.6781326783832
aF1517.667924585036
aa(lp27
F714.2163212818026
aF669.48456396061
aF763.2272739631345
aF817.3081385563584
aF946.01672158421
aF1506.1727601186365
aF1057.9930719027684
aF1237.535190108878
aF1403.3988104533976
aF1598.0747495044743
aF1571.4842650000808
aa(lp28
F680.8661620575874
aF661.6791620230356
aF737.8798578507799
aF806.1247079872036
aF923.9514452969464
aF1592.2903942738633
aF1064.7177065223082
aF1225.7647287745185
aF1377.5717892162922
aF1538.2766746390805
aF1555.0684257198106
aa(lp29
F689.2942069388191
aF666.5539987410531
aF746.8849499168572
aF813.2984633910316
aF932.6290293982779
aF1611.760343559038
aF1067.3488375571687
aF1233.0950995954136
aF1410.9904372277304
aF1562.611002166965
aF1556.8365732995267
aa(lp30
F666.145811136293
aF638.507686393813
aF720.606528079277
aF786.6973822509372
aF890.1659997655447
aF1558.6183520018656
aF1021.0366611160023
aF1165.0954936806413
aF1386.7788432107207
aF1508.9491204872752
aF1501.567086956239
aa(lp31
F666.605910294284
aF643.7331539966247
aF724.1370807225438
aF790.3253435699394
aF893.3526214886602
aF1569.1878075444981
aF1031.874622341361
aF1174.6711308552892
aF1363.0051726314832
aF1494.2261210002853
aF1496.9061554750294
aa(lp32
F657.5743166307508
aF640.0047950923424
aF723.1302269352833
aF782.7362075677137
aF895.4295494553497
aF1547.533565692539
aF1013.5819469449677
aF1171.9545492850175
aF1337.4174749143124
aF1495.6786544994218
aF1495.2130432064882
aa(lp33
F672.1555836122036
aF648.2561002642823
aF734.5004429783803
aF811.420850199995
aF906.7500850444868
aF1573.7809148362148
aF1048.6254024171985
aF1202.5644240461004
aF1369.457265050112
aF1521.060474405672
aF1523.1523280592583
aa(lp34
F672.2650740453616
aF652.7028344808083
aF723.4363550362808
aF789.9478146780561
aF901.3010342580171
aF1590.056462570761
aF1026.0332626191657
aF1184.2321341304323
aF1365.482610578296
aF1496.174137287264
aF1518.9967874322115
aa(lp35
F695.6955842981943
aF691.2275537979422
aF762.7763844497439
aF840.7559402961609
aF954.7653340041504
aF1671.4181434512325
aF1084.6255319952788
aF1278.9141970487872
aF1427.9500256687193
aF1584.012370830166
aF1603.3129857065753
aa(lp36
F657.328733500152
aF640.9472949339253
aF708.0646286707237
aF776.1322153844283
aF888.401546447614
aF1513.8100036763458
aF1002.8139817729822
aF1171.1660297285498
aF1331.3212369547546
aF1472.0423960025523
aF1483.0878846172968
aa(lp37
F721.2823807735821
aF709.1704161953367
aF785.9135152538713
aF866.9746310393091
aF985.033014992187
aF1701.762237465393
aF1103.5984349034047
aF1306.4725349151279
aF1492.2134121347392
aF1638.2051806195682
aF1637.3949184791245
aa(lp38
F651.8092757766801
aF631.4372630461133
aF707.4553956866708
aF767.0430061314024
aF877.724781887055
aF1512.6628636774708
aF1000.4829466562885
aF1167.8903415915502
aF1334.075911525551
aF1446.5325020821745
aF1471.9029025601874
aa(lp39
F647.90828398159
aF634.9742519259722
aF707.7078712304315
aF772.6625809260462
aF878.7615706712141
aF1528.6977816548845
aF1001.1823772772993
aF1155.4558532992858
aF1332.947801650425
aF1481.80269710673
aF1474.3711183591238
aa(lp40
F691.5331482392911
aF649.0909108807506
aF737.0471423207027
aF799.7540709242569
aF907.2947946403607
aF1587.758926842025
aF1054.0062055030503
aF1168.3446306310007
aF1385.2697703111605
aF1532.674171222464
aF1507.6971325665343
aa(lp41
F633.9156369147161
aF608.4354948178774
aF689.8880606777974
aF748.1680719818573
aF857.4310810292019
aF1476.278545507817
aF964.5652981847571
aF1077.287622643745
aF1272.1954548382014
aF1409.0606569809759
aF1382.667468718703
aa(lp42
F660.3193546456314
aF631.0472482209541
aF708.3598567352253
aF774.2299669181841
aF879.8610471014542
aF1532.8073897379813
aF1008.7900460061628
aF1155.5369904966942
aF1340.5032969693962
aF1469.6725251307614
aF1473.0895411240658
aa(lp43
F631.4288587101429
aF604.0546657425233
aF688.1111407437572
aF740.3267188580575
aF839.7686387445146
aF1452.6389644882054
aF955.3490692605527
aF1104.0815259864676
aF1273.6856555016006
aF1431.5478117141097
aF1421.6851643849845
aa(lp44
F662.0545848096903
aF655.0539024422038
aF725.6503183872138
aF798.3906594025708
aF909.4213830685424
aF1598.9152283693215
aF1032.9419622891724
aF1200.9873567984919
aF1367.1849405033884
aF1490.3023154359284
aF1509.7619038209261
aa(lp45
F640.9291146970556
aF614.1002303605425
aF695.6429287254012
aF746.7913977766096
aF857.6193576248984
aF1485.8561021020132
aF965.7661461560507
aF1111.4847392902564
aF1283.1147650200062
aF1424.8895842205136
aF1418.962968364257
aa(lp46
F627.4291423174047
aF613.4754659448956
aF681.254966623953
aF742.9905378031017
aF856.6423724219559
aF1452.0622523638929
aF963.7926536292548
aF1114.0050626016969
aF1280.8146545107668
aF1416.1865959635531
aF1405.188025758736
aasg7
(lp47
g9
(S'\x07\xde\x06\x12'
p48
tp49
Rp50
ag9
(S'\x07\xde\x06\x14'
p51
tp52
Rp53
ag9
(S'\x07\xde\x06\x1b'
p54
tp55
Rp56
ag9
(S'\x07\xde\x07\x03'
p57
tp58
Rp59
ag9
(S'\x07\xde\x07\x08'
p60
tp61
Rp62
ag9
(S'\x07\xde\x07\x12'
p63
tp64
Rp65
ag9
(S'\x07\xde\x07\x17'
p66
tp67
Rp68
ag9
(S'\x07\xde\x07\x1c'
p69
tp70
Rp71
ag9
(S'\x07\xde\x08\x01'
p72
tp73
Rp74
ag9
(S'\x07\xde\n\x17'
p75
tp76
Rp77
ag9
(S'\x07\xde\n\x1b'
p78
tp79
Rp80
ag9
(S'\x07\xde\x0c\n'
p81
tp82
Rp83
ag9
(S'\x07\xde\x0c\x11'
p84
tp85
Rp86
ag9
(S'\x07\xdf\x01\x07'
p87
tp88
Rp89
ag9
(S'\x07\xdf\x01\x14'
p90
tp91
Rp92
ag9
(S'\x07\xdf\x01\x1b'
p93
tp94
Rp95
ag9
(S'\x07\xdf\x02\x0b'
p96
tp97
Rp98
ag9
(S'\x07\xdf\x02\r'
p99
tp100
Rp101
ag9
(S'\x07\xdf\x02\x12'
p102
tp103
Rp104
ag9
(S'\x07\xdf\x02\x17'
p105
tp106
Rp107
ag9
(S'\x07\xdf\x02\x18'
p108
tp109
Rp110
ag9
(S'\x07\xdf\x02\x1b'
p111
tp112
Rp113
ag9
(S'\x07\xdf\x03\x02'
p114
tp115
Rp116
ag9
(S'\x07\xdf\x03\x03'
p117
tp118
Rp119
ag9
(S'\x07\xdf\x03\x04'
p120
tp121
Rp122
ag9
(S'\x07\xdf\x03\x05'
p123
tp124
Rp125
ag9
(S'\x07\xdf\x03\n'
p126
tp127
Rp128
asg13
(lp129
(lp130
F694.888305806
aF686.16782602
aF868.156896067
aF858.045104247
aF1041.72904647
aF1681.46459502
aF1115.8388144
aF1194.6527503
aF1341.48892303
aF1477.58391118
aF1460.84433813
aa(lp131
F685.308014199
aF676.650841587
aF856.254663335
aF846.217615353
aF1027.52612575
aF1658.79145196
aF1100.55877713
aF1178.42236703
aF1323.30363872
aF1457.68793404
aF1441.19973825
aa(lp132
F724.223816568
aF715.315938921
aF904.597445183
aF894.263915063
aF1085.2078999
aF1750.86454238
aF1162.62392764
aF1244.33507908
aF1397.15443909
aF1538.47492993
aF1520.96280415
aa(lp133
F743.269097659
aF734.244631098
aF928.251723347
aF917.779837998
aF1113.4265903
aF1795.90062253
aF1192.99552078
aF1276.57762786
aF1433.2793453
aF1577.98252448
aF1559.96660383
aa(lp134
F737.215456766
aF728.227623632
aF920.733397164
aF910.305019894
aF1104.45785322
aF1781.58727342
aF1183.34193174
aF1266.33017645
aF1421.79802817
aF1565.42681282
aF1547.57121451
aa(lp135
F688.171763942
aF679.495556964
aF859.812575253
aF849.753062529
aF1031.77187576
aF1665.56940249
aF1105.12636279
aF1183.2742516
aF1328.73993543
aF1463.63581386
aF1447.07252416
aa(lp136
F673.000399932
aF664.426115732
aF840.962884496
aF831.023583168
aF1009.27707456
aF1629.6569413
aF1080.92790262
aF1157.5674829
aF1299.93659349
aF1432.12005854
aF1415.95412658
aa(lp137
F681.503430096
aF672.871691943
aF851.527748393
aF841.520707831
aF1021.88524307
aF1649.78609004
aF1094.4905068
aF1171.97610304
aF1316.08089505
aF1449.78524072
aF1433.39674603
aa(lp138
F673.941272768
aF665.360589553
aF842.131935005
aF832.18509213
aF1010.6722636
aF1631.88444587
aF1082.42865012
aF1159.16192695
aF1301.72311358
aF1434.07495082
aF1417.88440995
aa(lp139
F689.128314157
aF680.445770371
aF861.000973344
aF850.933980231
aF1033.19000382
aF1667.83328415
aF1106.65201654
aF1184.89482486
aF1330.5557043
aF1465.6224196
aF1449.03403787
aa(lp140
F677.714527699
aF669.108286331
aF846.820186367
aF836.843214507
aF1016.26730573
aF1640.81711564
aF1088.44714976
aF1165.55597551
aF1308.88740835
aF1441.91426967
aF1425.62499278
aa(lp141
F666.441567926
aF657.912181296
aF832.813194785
aF822.926786715
aF999.550663865
aF1614.1276883
aF1070.46599894
aF1146.45183625
aF1287.48183906
aF1418.49098885
aF1402.49648087
aa(lp142
F654.387036172
aF645.941502207
aF817.833747879
aF808.046031483
aF981.671920339
aF1585.58025929
aF1051.23711925
aF1126.01874211
aF1264.58690822
aF1393.43503368
aF1377.75501366
aa(lp143
F666.441567926
aF657.912181296
aF832.813194785
aF822.926786715
aF999.550663865
aF1614.1276883
aF1070.46599894
aF1146.45183625
aF1287.48183906
aF1418.49098885
aF1402.49648087
aa(lp144
F663.645223431
aF655.135133761
aF829.338468295
aF819.474782775
aF995.403540555
aF1607.50612215
aF1066.00548954
aF1141.7122925
aF1282.17129147
aF1412.67945724
aF1396.75796884
aa(lp145
F671.121579576
aF662.560104673
aF838.628393636
aF828.704186455
aF1006.49097676
aF1625.20871856
aF1077.93105437
aF1154.38347021
aF1296.3690105
aF1428.21619121
aF1412.09938713
aa(lp146
F639.774319866
aF631.432789225
aF799.673493196
aF790.00802345
aF959.994530076
aF1550.9635351
aF1027.92593294
aF1101.24300705
aF1236.82564563
aF1363.04924962
aF1347.74945023
aa(lp147
F674.883121426
aF666.296042972
aF843.302189785
aF833.347809067
aF1012.06888045
aF1634.11421428
aF1083.93094771
aF1160.75799733
aF1303.51145409
aF1436.03181697
aF1419.81663719
aa(lp148
F637.96497955
aF629.636508645
aF797.424749247
aF787.774617961
aF957.310095791
aF1546.67643577
aF1025.03942286
aF1098.17478621
aF1233.38765867
aF1359.28591402
aF1344.03311583
aa(lp149
F637.96497955
aF629.636508645
aF797.424749247
aF787.774617961
aF957.310095791
aF1546.67643577
aF1025.03942286
aF1098.17478621
aF1233.38765867
aF1359.28591402
aF1344.03311583
aa(lp150
F659.004039957
aF650.526183922
aF823.571187797
aF813.745443649
aF988.520040645
aF1596.51515252
aF1058.60210409
aF1133.84536891
aF1273.35654899
aF1403.03279213
aF1387.23240833
aa(lp151
F634.35775019
aF626.055437006
aF792.941393904
aF783.321976593
aF951.957983238
aF1538.12878272
aF1019.28458331
aF1092.0574281
aF1226.53304118
aF1351.78240336
aF1336.62325878
aa(lp152
F642.495499733
aF634.134403725
aF803.055457168
aF793.367003241
aF964.031672019
aF1557.41080458
aF1032.26708094
aF1105.85728615
aF1241.99599706
aF1368.70875338
aF1353.33823362
aa(lp153
F622.739316795
aF614.52235813
aF778.500152213
aF768.980885758
aF934.71735119
aF1510.59243343
aF1000.74814354
aF1072.35110032
aF1204.45146682
aF1327.60848459
aF1312.7505189
aa(lp154
F650.710796922
aF642.29118304
aF813.265224961
aF803.507991654
aF976.218830796
aF1576.87261023
aF1045.37270568
aF1119.78637809
aF1257.60358265
aF1385.79194693
aF1370.20768656
aa(lp155
F621.852223492
aF613.641851604
aF777.397472908
aF767.88593065
aF933.400853763
aF1508.48962438
aF999.332791839
aF1070.84628179
aF1202.76525264
aF1325.7623665
aF1310.927367
aa(lp156
F629.870139273
aF621.600593744
aF787.363642426
aF777.782685793
aF945.299193972
aF1527.4938813
aF1012.12504895
aF1084.44643656
aF1218.00472724
aF1342.44634926
aF1327.40361964
aass(S'seir_mag'
p157
I4000
I01
tp158
(dp159
g4
(lp160
(lp161
F649.8004382779134
aF632.7822842146728
aF747.3237613008185
aF818.1285475766209
aF931.3459054245134
aF1725.5088623882668
aF1105.6656657267454
aF1235.054890614408
aF1459.0918521615072
aF1715.8253271411236
aF1630.0917167345606
aa(lp162
F641.7909796647322
aF607.3866493945192
aF721.2036620760051
aF795.6019520634228
aF897.8085313595786
aF1685.066489389767
aF1100.1436785674464
aF1235.5267329240335
aF1426.7020121190326
aF1602.764368200867
aF1556.4892446433737
aa(lp163
F864.1321382719253
aF877.8289580048134
aF824.7849181873413
aF1014.4135135421566
aF1057.817470964205
aF1723.8945498306643
aF1169.841337555135
aF953.2554740702518
aF1343.716695254699
aF1659.3667387401256
aF1052.8329554399531
aa(lp164
F703.0870576195249
aF699.7456188487354
aF789.7078800939929
aF903.1366269840071
aF1003.6933812678409
aF1910.9546375810323
aF1235.4488239117597
aF1371.401393377572
aF1607.9938300334327
aF1783.6781991169807
aF1750.715282235307
aa(lp165
F699.0834268979974
aF685.6404820536198
aF783.0257523539522
aF883.9396377865489
aF994.198302745864
aF1929.732169015715
aF1203.3194590076116
aF1247.3637800381573
aF1542.613282201818
aF1743.730584181639
aF1605.3963071173728
aa(lp166
F661.9231373532095
aF647.1857166250863
aF738.1986732229713
aF842.0128128726002
aF960.0670913551274
aF1819.6917358498379
aF1141.9827252393445
aF1299.8764818498214
aF1501.9092423781342
aF1734.6067787378956
aF1647.1351258449495
aa(lp167
F641.5687407923298
aF626.6059893084987
aF727.6088157219242
aF825.0316939597818
aF896.469321442214
aF1668.0535549934255
aF1080.8634594842215
aF1212.3256666882082
aF1424.1086728753598
aF1636.3640399357278
aF1526.3871700640273
aa(lp168
F631.6629719291983
aF628.218621278467
aF721.741607316352
aF804.2345701969482
aF905.6291357248169
aF1721.4055268499812
aF1096.8745700899894
aF1263.5715226338773
aF1471.2736384649097
aF1715.941037240699
aF1608.4498504549206
aa(lp169
F649.3053254095815
aF652.0340967628563
aF722.4370208384156
aF835.6287840330618
aF957.2455041707497
aF1849.950549867222
aF1131.6876796949882
aF1246.4758861581968
aF1523.1899467424078
aF1689.9960732329564
aF1554.8367166473492
aa(lp170
F647.1289429266134
aF639.7567995137294
aF712.434667243596
aF808.4129743357151
aF928.6710345091293
aF1741.1201485011502
aF1154.969727522519
aF1223.7587058956524
aF1484.4819226240716
aF1682.9287361001034
aF1532.0158957746805
aa(lp171
F658.2119391036741
aF618.3343850388777
aF712.1865308658387
aF792.5372403546867
aF902.1813787891027
aF1758.588704615479
aF1112.0276719766016
aF1190.6240525983676
aF1440.5924125181798
aF1666.2799392302716
aF1553.2875755747712
aa(lp172
F620.3336191566113
aF612.3668344824359
aF699.9144074235327
aF778.4317522730308
aF867.7756248384782
aF1675.0354048399506
aF1088.1306728497893
aF1194.452666299888
aF1439.2900225812957
aF1592.72276220157
aF1457.9761254271973
aa(lp173
F655.2821590822349
aF615.7713146906573
aF727.5582960217937
aF802.1864165592154
aF885.1358595596713
aF1804.2255027769866
aF1071.7471588966882
aF1259.641972643454
aF1542.3857602010787
aF1702.4365757639753
aF1569.4226647649007
aa(lp174
F618.1895082621347
aF621.6787872372302
aF695.9697501037813
aF792.80926531582
aF866.9751020719399
aF1718.6554043178467
aF1089.647832828927
aF1226.9172603178095
aF1447.1950192470467
aF1593.9002953846082
aF1539.575216238068
aa(lp175
F655.2704526505821
aF654.6819617308062
aF745.41203408335
aF807.6324410033714
aF917.2567135112367
aF1717.8381513430468
aF1109.877477166869
aF1282.3832064794403
aF1445.1384869640722
aF1667.5526167948592
aF1611.3048157493113
aa(lp176
F618.3501949021311
aF595.5897611513341
aF700.9722197787981
aF767.4730344095432
aF860.9402815748654
aF1628.9734349708044
aF1059.686809376541
aF1198.7790469970055
aF1444.9933361057701
aF1551.200545130755
aF1508.5546151898463
aa(lp177
F675.8517112547061
aF668.0508259156509
aF768.9574710888991
aF838.7929620304658
aF954.3117325015061
aF1801.2174980017285
aF1123.7206328782886
aF1319.4554310392323
aF1509.119595698382
aF1710.5338220241415
aF1659.127654564319
aa(lp178
F610.5360071168702
aF606.7298163434081
aF698.9251339920166
aF762.7748492077022
aF880.6446399969262
aF1647.762655428005
aF1080.5080529429367
aF1231.0008323156196
aF1398.4425670543594
aF1614.9285923505408
aF1530.3110803603686
aa(lp179
F614.2146006283725
aF612.1841492931233
aF700.0630841220102
aF777.0385543167155
aF889.8545242720153
aF1666.499544324006
aF1046.4435577327256
aF1228.3801757827823
aF1423.0232555082064
aF1602.2255723069552
aF1575.6782940365053
aa(lp180
F641.441261897807
aF620.0132690987981
aF721.2488346732366
aF778.856060149445
aF894.7309346026215
aF1702.4710573330378
aF1068.0601629756638
aF1189.688142837264
aF1468.3734982977658
aF1666.355637129577
aF1520.8097400079487
aa(lp181
F610.5695854992414
aF614.2326454107347
aF695.7390418874626
aF780.72280631799
aF856.1135951578029
aF1646.8150506931966
aF1088.207686481889
aF1130.5601132568515
aF1391.974446602961
aF1535.9939070081223
aF1402.8737879229238
aa(lp182
F629.0224967304537
aF604.5947570111475
aF701.0423053846762
aF766.6401024161282
aF872.4223169057377
aF1718.2796626869315
aF1064.2577916635337
aF1204.557695174263
aF1448.9264486759296
aF1646.454448187642
aF1528.2234392074834
aa(lp183
F614.6231999915705
aF587.6215983446566
aF693.939840733022
aF774.8953053899238
aF835.177897184777
aF1634.7438838620064
aF1035.017309240434
aF1176.2277885236379
aF1390.5494434811224
aF1555.035247448477
aF1482.2034385399606
aa(lp184
F609.9428733224493
aF601.3158499522125
aF687.462576898274
aF759.2487055204762
aF858.4952130904924
aF1616.915659603671
aF1061.0596073790198
aF1176.0406451236731
aF1366.5563340642557
aF1530.185178062764
aF1495.7566266048475
aa(lp185
F606.5236457439744
aF591.9205424238443
aF682.5036007494903
aF764.7267214963944
aF840.1399761056598
aF1616.2722362968561
aF999.4437635379523
aF1139.5263106146688
aF1317.4758455382378
aF1474.2417409952693
aF1439.3931470187276
aa(lp186
F626.3382505027794
aF605.3539040035323
aF708.954037346393
aF777.7541751537406
aF857.6176520282265
aF1756.3128231266392
aF1082.7381007695847
aF1163.6462020580173
aF1410.5196440296943
aF1551.3565021375189
aF1449.2590001798749
aa(lp187
F680.7666669709578
aF654.1851391810087
aF765.162666678081
aF826.0268135572513
aF953.1924527999122
aF1747.6875067852075
aF1117.744153358313
aF1255.205467178354
aF1515.1246724595374
aF1748.1143051715644
aF1563.6021829980236
aa(lp188
F597.8688991835611
aF603.9339975580168
aF683.4785798859623
aF775.504000119505
aF880.6414873533724
aF1713.087794602267
aF1063.0494178191052
aF1242.8263034278602
aF1435.2084915159778
aF1647.2987092891876
aF1517.895669416474
aa(lp189
F681.7472960037923
aF652.7707067961062
aF787.5194397828336
aF859.0616053122521
aF984.5325214965716
aF1878.2981466976444
aF1216.5026439496855
aF1286.5869777611279
aF1609.3229694214856
aF1762.3916177158171
aF1606.4875458922202
aa(lp190
F659.5777753537748
aF656.5048599770502
aF744.590274941742
aF823.1783671042773
aF958.6285658379945
aF1733.6027540011141
aF1154.629167277582
aF1312.4190975380047
aF1609.551500837545
aF1750.6835991038254
aF1674.5459555148313
aa(lp191
F706.7793402326755
aF716.2193474330443
aF799.1398916753278
aF892.2892770414666
aF1050.840605325809
aF1976.5600507044694
aF1216.108957517299
aF1415.1850113003923
aF1742.2124294538282
aF1901.5392061272944
aF1742.2360702620538
aa(lp192
F685.2636629569045
aF655.4439612748838
aF775.913709663874
aF862.4438545371733
aF974.9239883355139
aF1805.713839965424
aF1197.9198752705968
aF1240.1706033321484
aF1543.2353372062778
aF1799.0758467637481
aF1593.1982276754222
aa(lp193
F714.1849122777575
aF767.7081964411392
aF838.62373286158
aF931.4231256076688
aF1086.9234159702949
aF2017.3434632333942
aF1317.2489906339258
aF1501.5956610375176
aF1774.1689975851202
aF1919.6754029600693
aF1880.0496167297322
aasg7
(lp194
g9
(S'\x07\xde\x06\x12'
p195
tp196
Rp197
ag9
(S'\x07\xde\x06\x14'
p198
tp199
Rp200
ag9
(S'\x07\xde\x06\x1b'
p201
tp202
Rp203
ag9
(S'\x07\xde\x07\x03'
p204
tp205
Rp206
ag9
(S'\x07\xde\x07\x08'
p207
tp208
Rp209
ag9
(S'\x07\xde\x07\x12'
p210
tp211
Rp212
ag9
(S'\x07\xde\x07\x17'
p213
tp214
Rp215
ag9
(S'\x07\xde\x08\x01'
p216
tp217
Rp218
ag9
(S'\x07\xde\n\x17'
p219
tp220
Rp221
ag9
(S'\x07\xde\n\x1b'
p222
tp223
Rp224
ag9
(S'\x07\xde\x0c\n'
p225
tp226
Rp227
ag9
(S'\x07\xde\x0c\x11'
p228
tp229
Rp230
ag9
(S'\x07\xdf\x01\x07'
p231
tp232
Rp233
ag9
(S'\x07\xdf\x01\x14'
p234
tp235
Rp236
ag9
(S'\x07\xdf\x01\x1b'
p237
tp238
Rp239
ag9
(S'\x07\xdf\x02\x0b'
p240
tp241
Rp242
ag9
(S'\x07\xdf\x02\r'
p243
tp244
Rp245
ag9
(S'\x07\xdf\x02\x12'
p246
tp247
Rp248
ag9
(S'\x07\xdf\x02\x17'
p249
tp250
Rp251
ag9
(S'\x07\xdf\x02\x18'
p252
tp253
Rp254
ag9
(S'\x07\xdf\x02\x1b'
p255
tp256
Rp257
ag9
(S'\x07\xdf\x03\x02'
p258
tp259
Rp260
ag9
(S'\x07\xdf\x03\x03'
p261
tp262
Rp263
ag9
(S'\x07\xdf\x03\x04'
p264
tp265
Rp266
ag9
(S'\x07\xdf\x03\x05'
p267
tp268
Rp269
ag9
(S'\x07\xdf\x03\n'
p270
tp271
Rp272
ag9
(S'\x07\xdf\x05\x0b'
p273
tp274
Rp275
ag9
(S'\x07\xdf\x05\x0c'
p276
tp277
Rp278
ag9
(S'\x07\xdf\x05\x14'
p279
tp280
Rp281
ag9
(S'\x07\xdf\x06\x03'
p282
tp283
Rp284
ag9
(S'\x07\xdf\x06\x08'
p285
tp286
Rp287
ag9
(S'\x07\xdf\x06\x18'
p288
tp289
Rp290
ag9
(S'\x07\xdf\x06\x1e'
p291
tp292
Rp293
asg13
(lp294
(lp295
F694.888305806
aF686.16782602
aF868.156896067
aF858.045104247
aF1041.72904647
aF1681.46459502
aF1115.8388144
aF1194.6527503
aF1341.48892303
aF1477.58391118
aF1460.84433813
aa(lp296
F685.308014199
aF676.650841587
aF856.254663335
aF846.217615353
aF1027.52612575
aF1658.79145196
aF1100.55877713
aF1178.42236703
aF1323.30363872
aF1457.68793404
aF1441.19973825
aa(lp297
F724.223816568
aF715.315938921
aF904.597445183
aF894.263915063
aF1085.2078999
aF1750.86454238
aF1162.62392764
aF1244.33507908
aF1397.15443909
aF1538.47492993
aF1520.96280415
aa(lp298
F743.269097659
aF734.244631098
aF928.251723347
aF917.779837998
aF1113.4265903
aF1795.90062253
aF1192.99552078
aF1276.57762786
aF1433.2793453
aF1577.98252448
aF1559.96660383
aa(lp299
F737.215456766
aF728.227623632
aF920.733397164
aF910.305019894
aF1104.45785322
aF1781.58727342
aF1183.34193174
aF1266.33017645
aF1421.79802817
aF1565.42681282
aF1547.57121451
aa(lp300
F688.171763942
aF679.495556964
aF859.812575253
aF849.753062529
aF1031.77187576
aF1665.56940249
aF1105.12636279
aF1183.2742516
aF1328.73993543
aF1463.63581386
aF1447.07252416
aa(lp301
F673.000399932
aF664.426115732
aF840.962884496
aF831.023583168
aF1009.27707456
aF1629.6569413
aF1080.92790262
aF1157.5674829
aF1299.93659349
aF1432.12005854
aF1415.95412658
aa(lp302
F673.941272768
aF665.360589553
aF842.131935005
aF832.18509213
aF1010.6722636
aF1631.88444587
aF1082.42865012
aF1159.16192695
aF1301.72311358
aF1434.07495082
aF1417.88440995
aa(lp303
F689.128314157
aF680.445770371
aF861.000973344
aF850.933980231
aF1033.19000382
aF1667.83328415
aF1106.65201654
aF1184.89482486
aF1330.5557043
aF1465.6224196
aF1449.03403787
aa(lp304
F677.714527699
aF669.108286331
aF846.820186367
aF836.843214507
aF1016.26730573
aF1640.81711564
aF1088.44714976
aF1165.55597551
aF1308.88740835
aF1441.91426967
aF1425.62499278
aa(lp305
F666.441567926
aF657.912181296
aF832.813194785
aF822.926786715
aF999.550663865
aF1614.1276883
aF1070.46599894
aF1146.45183625
aF1287.48183906
aF1418.49098885
aF1402.49648087
aa(lp306
F654.387036172
aF645.941502207
aF817.833747879
aF808.046031483
aF981.671920339
aF1585.58025929
aF1051.23711925
aF1126.01874211
aF1264.58690822
aF1393.43503368
aF1377.75501366
aa(lp307
F666.441567926
aF657.912181296
aF832.813194785
aF822.926786715
aF999.550663865
aF1614.1276883
aF1070.46599894
aF1146.45183625
aF1287.48183906
aF1418.49098885
aF1402.49648087
aa(lp308
F663.645223431
aF655.135133761
aF829.338468295
aF819.474782775
aF995.403540555
aF1607.50612215
aF1066.00548954
aF1141.7122925
aF1282.17129147
aF1412.67945724
aF1396.75796884
aa(lp309
F671.121579576
aF662.560104673
aF838.628393636
aF828.704186455
aF1006.49097676
aF1625.20871856
aF1077.93105437
aF1154.38347021
aF1296.3690105
aF1428.21619121
aF1412.09938713
aa(lp310
F639.774319866
aF631.432789225
aF799.673493196
aF790.00802345
aF959.994530076
aF1550.9635351
aF1027.92593294
aF1101.24300705
aF1236.82564563
aF1363.04924962
aF1347.74945023
aa(lp311
F674.883121426
aF666.296042972
aF843.302189785
aF833.347809067
aF1012.06888045
aF1634.11421428
aF1083.93094771
aF1160.75799733
aF1303.51145409
aF1436.03181697
aF1419.81663719
aa(lp312
F637.96497955
aF629.636508645
aF797.424749247
aF787.774617961
aF957.310095791
aF1546.67643577
aF1025.03942286
aF1098.17478621
aF1233.38765867
aF1359.28591402
aF1344.03311583
aa(lp313
F637.96497955
aF629.636508645
aF797.424749247
aF787.774617961
aF957.310095791
aF1546.67643577
aF1025.03942286
aF1098.17478621
aF1233.38765867
aF1359.28591402
aF1344.03311583
aa(lp314
F659.004039957
aF650.526183922
aF823.571187797
aF813.745443649
aF988.520040645
aF1596.51515252
aF1058.60210409
aF1133.84536891
aF1273.35654899
aF1403.03279213
aF1387.23240833
aa(lp315
F634.35775019
aF626.055437006
aF792.941393904
aF783.321976593
aF951.957983238
aF1538.12878272
aF1019.28458331
aF1092.0574281
aF1226.53304118
aF1351.78240336
aF1336.62325878
aa(lp316
F642.495499733
aF634.134403725
aF803.055457168
aF793.367003241
aF964.031672019
aF1557.41080458
aF1032.26708094
aF1105.85728615
aF1241.99599706
aF1368.70875338
aF1353.33823362
aa(lp317
F622.739316795
aF614.52235813
aF778.500152213
aF768.980885758
aF934.71735119
aF1510.59243343
aF1000.74814354
aF1072.35110032
aF1204.45146682
aF1327.60848459
aF1312.7505189
aa(lp318
F650.710796922
aF642.29118304
aF813.265224961
aF803.507991654
aF976.218830796
aF1576.87261023
aF1045.37270568
aF1119.78637809
aF1257.60358265
aF1385.79194693
aF1370.20768656
aa(lp319
F621.852223492
aF613.641851604
aF777.397472908
aF767.88593065
aF933.400853763
aF1508.48962438
aF999.332791839
aF1070.84628179
aF1202.76525264
aF1325.7623665
aF1310.927367
aa(lp320
F629.870139273
aF621.600593744
aF787.363642426
aF777.782685793
aF945.299193972
aF1527.4938813
aF1012.12504895
aF1084.44643656
aF1218.00472724
aF1342.44634926
aF1327.40361964
aa(lp321
F695.851757757
aF687.124969586
aF869.353811663
aF859.234567476
aF1043.15727321
aF1683.74449568
aF1117.3754347
aF1196.28482718
aF1343.31756984
aF1479.58447947
aF1462.81960112
aa(lp322
F648.878453253
aF640.471819895
aF810.988091757
aF801.246119949
aF973.500737447
aF1572.53217883
aF1042.44967086
aF1116.67982187
aF1254.12269293
aF1381.98208589
aF1366.44552875
aa(lp323
F703.594988685
aF694.81788304
aF878.973089801
aF868.794374373
aF1054.63520025
aF1702.06637826
aF1129.7249941
aF1209.40080686
aF1358.01320381
aF1495.66108131
aF1478.69265812
aa(lp324
F692.003873149
aF683.302343091
aF864.573459164
aF854.484048684
aF1037.45303314
aF1674.63864165
aF1111.23836553
aF1189.7663924
aF1336.01403499
aF1471.59418945
aF1454.93034918
aa(lp325
F741.247170705
aF732.234896056
aF925.740620315
aF915.283218525
aF1110.43108934
aF1791.12010004
aF1189.77122222
aF1273.15506342
aF1429.44468364
aF1573.78909597
aF1555.82674272
aa(lp326
F703.594988685
aF694.81788304
aF878.973089801
aF868.794374373
aF1054.63520025
aF1702.06637826
aF1129.7249941
aF1209.40080686
aF1358.01320381
aF1495.66108131
aF1478.69265812
aa(lp327
F678.660285009
aF670.047663654
aF847.995264847
aF838.010770121
aF1017.66964168
aF1643.05595244
aF1089.95565646
aF1167.15856024
aF1310.68304074
aF1443.8790423
aF1427.56500618
aass(S'seir_real'
p328
I4000
I00
tp329
(dp330
g4
(lp331
(lp332
F674.5263017610216
aF684.560016033493
aF780.6117595841687
aF766.9068156179202
aF901.7074308775537
aF955.9923325162251
aF895.0051943503319
aF896.5996015130946
aF910.7654712695069
aF928.2860299936345
aF925.9654386871335
aa(lp333
F683.352771529012
aF657.902918567304
aF800.3643483353037
aF767.0191808448171
aF904.7543565799916
aF951.7603052234864
aF895.6482856120888
aF896.2812681832767
aF908.4841233436783
aF923.6237940730693
aF919.8329891986768
aa(lp334
F949.4167481430529
aF950.7767723265467
aF956.769798880604
aF990.6138315168321
aF898.8484850884604
aF966.4178321708215
aF899.0248062607062
aF891.0696903228802
aF911.1276128779434
aF937.9089853201818
aF905.8366399503466
aa(lp335
F745.3370107758273
aF747.5193854027079
aF949.6891530754392
aF963.4215549714173
aF896.0602427962808
aF970.7787307364747
aF900.1494379861973
aF906.7003774122097
aF927.1598512459842
aF949.2004826094585
aF942.3671415936436
aa(lp336
F721.0365038718272
aF717.6045438054475
aF1146.1542901457467
aF962.3667871778706
aF895.7459888627052
aF969.5889464100226
aF898.2529531476899
aF906.7840337295858
aF926.4352211525145
aF944.1576671673129
aF942.0773839747278
aa(lp337
F701.9390885226511
aF681.2069585576908
aF805.655372482738
aF768.2162901731339
aF898.9138988582067
aF961.6138362736581
aF895.3571613073368
aF898.8890744435314
aF912.9123163396201
aF933.897125478407
aF927.1249768012518
aa(lp338
F691.6609670646054
aF670.2760756825452
aF772.403893705227
aF777.6485624811905
aF903.559911442179
aF956.4158547785356
aF895.5317012563484
aF896.2600972853363
aF910.0629627731615
aF923.9354797195639
aF921.8175270675531
aa(lp339
F674.9326992095289
aF661.4819530603876
aF793.7615188556116
aF768.7046862384475
aF902.1903091138678
aF956.6319189335259
aF895.3289558105297
aF896.525215916549
aF911.4098486004533
aF943.1141952749576
aF925.7469659293847
aa(lp340
F677.6461946881166
aF698.786825623468
aF743.9013740931218
aF778.319740692475
aF899.162805229987
aF961.4457148622921
aF895.3070751124868
aF899.3973691169577
aF914.2096764574849
aF925.9056679842755
aF924.0540370674837
aa(lp341
F669.0193739000412
aF675.7622128297975
aF789.5586052082266
aF774.5973389145042
aF903.7667089083824
aF952.5116673849475
aF896.2653019687247
aF896.3748036878585
aF909.8582923930588
aF931.1420192799155
aF918.7196106181159
aa(lp342
F687.9888768663862
aF654.8801319702661
aF776.9072954292469
aF783.6884828227637
aF905.291063870259
aF956.1358224108837
aF896.3752055069536
aF896.5276613731455
aF910.7586748573723
aF927.2701444623303
aF919.8360020240079
aa(lp343
F651.9796485367515
aF652.3460754610019
aF812.5980576124505
aF792.9054777249072
aF910.2360221990571
aF950.4247294007795
aF897.3830630071648
aF896.0674268179139
aF909.6159555849677
aF941.1193271351667
aF913.4680913440446
aa(lp344
F691.8886593495852
aF650.6186484445665
aF804.9542340246855
aF778.3441324650632
aF903.9534576204377
aF957.4152539418105
aF895.4140991591789
aF896.1481389701958
aF910.3135614563962
aF929.333700150371
aF919.0732757837512
aa(lp345
F658.7271987679037
aF664.4461095749131
aF769.6733737021653
aF797.1561510960695
aF907.9770562274376
aF954.6439529338646
aF896.8772433057757
aF896.3075588295937
aF909.7812113485629
aF924.8405165696956
aF917.4847990917076
aa(lp346
F690.9780025667249
aF685.9341242365721
aF802.2073745643913
aF774.0741461132977
aF901.0717194431672
aF954.8562769558571
aF895.5870933698925
aF896.043620106096
aF911.7419739350233
aF937.8206577768879
aF922.6881622572326
aa(lp347
F668.0269958975741
aF637.8605917797076
aF817.9929754041871
aF777.1636526041904
aF911.9572595066714
aF949.053969343217
aF897.1421375332842
aF896.4928691616935
aF909.2444712781939
aF926.9865957279244
aF913.5332093990164
aa(lp348
F694.719394979899
aF685.0484971974295
aF805.5765824954361
aF774.3105464615858
aF899.4058876207199
aF959.7360614098097
aF895.3407540418186
aF896.9834114198426
aF913.8679332786272
aF923.1290284761056
aF926.5594206000322
aa(lp349
F636.5529558496646
aF647.4734447060531
aF802.9923148499211
aF773.6976438156482
aF913.3880210697605
aF947.0473825627857
aF897.1546618119498
aF894.7640168650761
aF907.3335690479939
aF912.2618877373136
aF914.4930332548292
aa(lp350
F647.4919734159257
aF643.4481640188856
aF772.4226591657439
aF782.0711464382197
aF913.2623163167387
aF948.4209181842031
aF897.077501333243
aF896.5121572983013
aF908.1923628671666
aF938.1689126562395
aF913.0481605922315
aa(lp351
F668.2633252577192
aF659.400809984948
aF780.5051379454807
aF778.3148646852865
aF904.0128744929327
aF956.6078358483828
aF896.135917742285
aF895.6942971171211
aF910.9935420489888
aF950.6545582491528
aF917.3364012410042
aa(lp352
F640.5414285963548
aF645.9231308480215
aF804.1104189498279
aF794.9559443942358
aF916.617598631091
aF946.2693292645929
aF899.1661740245007
aF895.3318934229154
aF906.0440643668167
aF914.6981516414008
aF911.3938531504161
aa(lp353
F662.7059605922315
aF648.1743424521634
aF778.7917686048594
aF787.8559028949119
aF910.1104020447356
aF951.9325769858365
aF896.2992865144362
aF896.038091242356
aF909.2932388687577
aF926.7433308593278
aF915.4314745723584
aa(lp354
F636.073681386494
aF624.2898516371279
aF804.9046864190282
aF785.3835213075218
aF925.3044210332727
aF945.1340022479814
aF900.8749510321984
aF896.149582480017
aF903.9810477216948
aF917.1408915130072
aF909.7407631601558
aa(lp355
F672.5510966143121
aF653.1344104904352
aF778.2947281384724
aF788.3437677463495
aF907.9456935817298
aF952.8494764957793
aF896.7335685353265
aF896.0227363174363
aF909.3838682240894
aF918.159597310267
aF917.1673385341746
aa(lp356
F639.7778717429785
aF625.9010673821157
aF773.739209026716
aF784.6085073671562
aF921.0929910020956
aF948.0209603973155
aF899.9702752053597
aF895.9863526545216
aF905.5799341185452
aF928.2508646481649
aF910.3749880975898
aa(lp357
F654.6889804442549
aF634.6383996546028
aF766.5599170943883
aF778.4363732755442
aF918.0522099789392
aF947.047477025204
aF898.6528842962363
aF895.7994535179553
aF905.6620195566563
aF913.2645509579835
aF911.7154065706155
aa(lp358
F711.721879065814
aF693.5918615816435
aF788.5790735852491
aF774.8080788028495
aF898.3338542270162
aF962.0835182118252
aF895.220113833103
aF898.7079755760277
aF914.7742698351419
aF920.3707034509222
aF924.2885242513801
aa(lp359
F628.4711192446717
aF639.6825282438156
aF770.2248180046541
aF780.7194594237083
aF913.4481754181152
aF949.606322686706
aF897.2871013893485
aF895.1132211494095
aF905.8997716397627
aF904.9725712096864
aF913.8226089165113
aa(lp360
F712.0142126042076
aF701.9740015397914
aF794.143105919284
aF779.879070612923
aF897.2741877761164
aF961.2484008841575
aF895.8405499901065
aF899.6747482963112
aF916.2813102051939
aF923.0323398019957
aF927.7409249509652
aa(lp361
F677.3860550266342
aF696.8504763978929
aF753.7991237052848
aF774.1973112402171
aF899.1504484580098
aF959.3683923399699
aF895.7263143286264
aF899.2193376886391
aF916.2140052676345
aF925.2533550984436
aF928.7573646915914
aa(lp362
F753.6559536948926
aF737.5535825695848
aF963.7872181856566
aF965.8663129977915
aF895.7063379179917
aF971.9567939689131
aF898.2795114426377
aF905.3577478387582
aF928.7896534611971
aF946.8993515070439
aF943.0262423098815
aa(lp363
F712.4492085430686
aF693.5329444412591
aF1076.2257595230083
aF769.3910686342075
aF896.3780997020513
aF961.1442051252819
aF895.8531357825992
aF899.0247347624902
aF919.2548739446592
aF944.3330204635861
aF928.1503641217296
aa(lp364
F743.7639629580885
aF769.9685360887718
aF922.2441543176091
aF926.2822212324769
aF896.8454093094281
aF979.0328803778805
aF903.3061864759051
aF910.1546228517195
aF941.2723145396634
aF950.1618959528095
aF951.1528848121308
aasg7
(lp365
g197
ag200
ag203
ag206
ag209
ag212
ag215
ag218
ag221
ag224
ag227
ag230
ag233
ag236
ag239
ag242
ag245
ag248
ag251
ag254
ag257
ag260
ag263
ag266
ag269
ag272
ag275
ag278
ag281
ag284
ag287
ag290
ag293
asg13
(lp366
(lp367
F694.888305806
aF686.16782602
aF868.156896067
aF858.045104247
aF1041.72904647
aF1681.46459502
aF1115.8388144
aF1194.6527503
aF1341.48892303
aF1477.58391118
aF1460.84433813
aa(lp368
F685.308014199
aF676.650841587
aF856.254663335
aF846.217615353
aF1027.52612575
aF1658.79145196
aF1100.55877713
aF1178.42236703
aF1323.30363872
aF1457.68793404
aF1441.19973825
aa(lp369
F724.223816568
aF715.315938921
aF904.597445183
aF894.263915063
aF1085.2078999
aF1750.86454238
aF1162.62392764
aF1244.33507908
aF1397.15443909
aF1538.47492993
aF1520.96280415
aa(lp370
F743.269097659
aF734.244631098
aF928.251723347
aF917.779837998
aF1113.4265903
aF1795.90062253
aF1192.99552078
aF1276.57762786
aF1433.2793453
aF1577.98252448
aF1559.96660383
aa(lp371
F737.215456766
aF728.227623632
aF920.733397164
aF910.305019894
aF1104.45785322
aF1781.58727342
aF1183.34193174
aF1266.33017645
aF1421.79802817
aF1565.42681282
aF1547.57121451
aa(lp372
F688.171763942
aF679.495556964
aF859.812575253
aF849.753062529
aF1031.77187576
aF1665.56940249
aF1105.12636279
aF1183.2742516
aF1328.73993543
aF1463.63581386
aF1447.07252416
aa(lp373
F673.000399932
aF664.426115732
aF840.962884496
aF831.023583168
aF1009.27707456
aF1629.6569413
aF1080.92790262
aF1157.5674829
aF1299.93659349
aF1432.12005854
aF1415.95412658
aa(lp374
F673.941272768
aF665.360589553
aF842.131935005
aF832.18509213
aF1010.6722636
aF1631.88444587
aF1082.42865012
aF1159.16192695
aF1301.72311358
aF1434.07495082
aF1417.88440995
aa(lp375
F689.128314157
aF680.445770371
aF861.000973344
aF850.933980231
aF1033.19000382
aF1667.83328415
aF1106.65201654
aF1184.89482486
aF1330.5557043
aF1465.6224196
aF1449.03403787
aa(lp376
F677.714527699
aF669.108286331
aF846.820186367
aF836.843214507
aF1016.26730573
aF1640.81711564
aF1088.44714976
aF1165.55597551
aF1308.88740835
aF1441.91426967
aF1425.62499278
aa(lp377
F666.441567926
aF657.912181296
aF832.813194785
aF822.926786715
aF999.550663865
aF1614.1276883
aF1070.46599894
aF1146.45183625
aF1287.48183906
aF1418.49098885
aF1402.49648087
aa(lp378
F654.387036172
aF645.941502207
aF817.833747879
aF808.046031483
aF981.671920339
aF1585.58025929
aF1051.23711925
aF1126.01874211
aF1264.58690822
aF1393.43503368
aF1377.75501366
aa(lp379
F666.441567926
aF657.912181296
aF832.813194785
aF822.926786715
aF999.550663865
aF1614.1276883
aF1070.46599894
aF1146.45183625
aF1287.48183906
aF1418.49098885
aF1402.49648087
aa(lp380
F663.645223431
aF655.135133761
aF829.338468295
aF819.474782775
aF995.403540555
aF1607.50612215
aF1066.00548954
aF1141.7122925
aF1282.17129147
aF1412.67945724
aF1396.75796884
aa(lp381
F671.121579576
aF662.560104673
aF838.628393636
aF828.704186455
aF1006.49097676
aF1625.20871856
aF1077.93105437
aF1154.38347021
aF1296.3690105
aF1428.21619121
aF1412.09938713
aa(lp382
F639.774319866
aF631.432789225
aF799.673493196
aF790.00802345
aF959.994530076
aF1550.9635351
aF1027.92593294
aF1101.24300705
aF1236.82564563
aF1363.04924962
aF1347.74945023
aa(lp383
F674.883121426
aF666.296042972
aF843.302189785
aF833.347809067
aF1012.06888045
aF1634.11421428
aF1083.93094771
aF1160.75799733
aF1303.51145409
aF1436.03181697
aF1419.81663719
aa(lp384
F637.96497955
aF629.636508645
aF797.424749247
aF787.774617961
aF957.310095791
aF1546.67643577
aF1025.03942286
aF1098.17478621
aF1233.38765867
aF1359.28591402
aF1344.03311583
aa(lp385
F637.96497955
aF629.636508645
aF797.424749247
aF787.774617961
aF957.310095791
aF1546.67643577
aF1025.03942286
aF1098.17478621
aF1233.38765867
aF1359.28591402
aF1344.03311583
aa(lp386
F659.004039957
aF650.526183922
aF823.571187797
aF813.745443649
aF988.520040645
aF1596.51515252
aF1058.60210409
aF1133.84536891
aF1273.35654899
aF1403.03279213
aF1387.23240833
aa(lp387
F634.35775019
aF626.055437006
aF792.941393904
aF783.321976593
aF951.957983238
aF1538.12878272
aF1019.28458331
aF1092.0574281
aF1226.53304118
aF1351.78240336
aF1336.62325878
aa(lp388
F642.495499733
aF634.134403725
aF803.055457168
aF793.367003241
aF964.031672019
aF1557.41080458
aF1032.26708094
aF1105.85728615
aF1241.99599706
aF1368.70875338
aF1353.33823362
aa(lp389
F622.739316795
aF614.52235813
aF778.500152213
aF768.980885758
aF934.71735119
aF1510.59243343
aF1000.74814354
aF1072.35110032
aF1204.45146682
aF1327.60848459
aF1312.7505189
aa(lp390
F650.710796922
aF642.29118304
aF813.265224961
aF803.507991654
aF976.218830796
aF1576.87261023
aF1045.37270568
aF1119.78637809
aF1257.60358265
aF1385.79194693
aF1370.20768656
aa(lp391
F621.852223492
aF613.641851604
aF777.397472908
aF767.88593065
aF933.400853763
aF1508.48962438
aF999.332791839
aF1070.84628179
aF1202.76525264
aF1325.7623665
aF1310.927367
aa(lp392
F629.870139273
aF621.600593744
aF787.363642426
aF777.782685793
aF945.299193972
aF1527.4938813
aF1012.12504895
aF1084.44643656
aF1218.00472724
aF1342.44634926
aF1327.40361964
aa(lp393
F695.851757757
aF687.124969586
aF869.353811663
aF859.234567476
aF1043.15727321
aF1683.74449568
aF1117.3754347
aF1196.28482718
aF1343.31756984
aF1479.58447947
aF1462.81960112
aa(lp394
F648.878453253
aF640.471819895
aF810.988091757
aF801.246119949
aF973.500737447
aF1572.53217883
aF1042.44967086
aF1116.67982187
aF1254.12269293
aF1381.98208589
aF1366.44552875
aa(lp395
F703.594988685
aF694.81788304
aF878.973089801
aF868.794374373
aF1054.63520025
aF1702.06637826
aF1129.7249941
aF1209.40080686
aF1358.01320381
aF1495.66108131
aF1478.69265812
aa(lp396
F692.003873149
aF683.302343091
aF864.573459164
aF854.484048684
aF1037.45303314
aF1674.63864165
aF1111.23836553
aF1189.7663924
aF1336.01403499
aF1471.59418945
aF1454.93034918
aa(lp397
F741.247170705
aF732.234896056
aF925.740620315
aF915.283218525
aF1110.43108934
aF1791.12010004
aF1189.77122222
aF1273.15506342
aF1429.44468364
aF1573.78909597
aF1555.82674272
aa(lp398
F703.594988685
aF694.81788304
aF878.973089801
aF868.794374373
aF1054.63520025
aF1702.06637826
aF1129.7249941
aF1209.40080686
aF1358.01320381
aF1495.66108131
aF1478.69265812
aa(lp399
F678.660285009
aF670.047663654
aF847.995264847
aF838.010770121
aF1017.66964168
aF1643.05595244
aF1089.95565646
aF1167.15856024
aF1310.68304074
aF1443.8790423
aF1427.56500618
aass(S'orig_spgr_mag'
p400
F14.0
I00
tp401
(dp402
g4
(lp403
(lp404
F684.023505686261
aF723.8019867838159
aF772.1339332991815
aF882.6142704165076
aF982.7146369589328
aF1865.841426170083
aF1200.0636703517423
aF1326.9849824931505
aF1547.9082193787635
aF1695.3101267577333
aF1713.5175352147126
aa(lp405
F635.6550328981942
aF668.4733257394291
aF723.0748284344958
aF809.4220724779179
aF911.6994662594051
aF1751.1985132446712
aF1093.7689770707054
aF1281.1735397326781
aF1414.2747759047797
aF1573.5301828641695
aF1617.1333025903843
aa(lp406
F650.1313439366488
aF785.8659683589061
aF1261.7937710753704
aF889.9064294478147
aF989.6137640275913
aF1866.4088459105133
aF1200.4308471299917
aF1305.1619650095095
aF1580.1778709144103
aF1536.5635089138877
aF1721.0371252191828
aa(lp407
F657.4421985637442
aF984849.9210591344
aF904.000461872862
aF873.2347440754539
aF866.8874088183688
aF1833.9324834590086
aF1166.7344485741569
aF1227.7076235952156
aF1523.2511779628342
aF1553.8056405528255
aF3455255.2478354867
aa(lp408
F739.0456891514249
aF774.6663729198071
aF836.5408398034141
aF949.3434323378884
aF1061.2406082724985
aF2010.2819264025318
aF1263.3855707948185
aF1468.12436910591
aF1667.428144670245
aF1818.1003817309568
aF1843.8581828284518
aa(lp409
F683.4512092130329
aF783.3032675953847
aF786.219604597021
aF891.2076929060677
aF1042.9493374326698
aF1923.0792471180864
aF1219.5271674845662
aF1346.439622909219
aF1597.3201698398773
aF1681.737073446347
aF1727.8209707797596
aa(lp410
F794.6822389489321
aF820.6945704972263
aF904.5524971636203
aF1024.7928493863956
aF1132.9361596923306
aF2200.191491379809
aF1379.0239310997745
aF1570.462049932476
aF1778.3862449753808
aF1955.120234019154
aF1953.925881899209
aasg7
(lp411
g9
(S'\x07\xdf\x05\x0b'
p412
tp413
Rp414
ag9
(S'\x07\xdf\x05\x0c'
p415
tp416
Rp417
ag9
(S'\x07\xdf\x05\x14'
p418
tp419
Rp420
ag9
(S'\x07\xdf\x06\x03'
p421
tp422
Rp423
ag9
(S'\x07\xdf\x06\x08'
p424
tp425
Rp426
ag9
(S'\x07\xdf\x06\x18'
p427
tp428
Rp429
ag9
(S'\x07\xdf\x06\x1e'
p430
tp431
Rp432
asg13
(lp433
(lp434
F695.851757757
aF687.124969586
aF869.353811663
aF859.234567476
aF1043.15727321
aF1683.74449568
aF1117.3754347
aF1196.28482718
aF1343.31756984
aF1479.58447947
aF1462.81960112
aa(lp435
F648.878453253
aF640.471819895
aF810.988091757
aF801.246119949
aF973.500737447
aF1572.53217883
aF1042.44967086
aF1116.67982187
aF1254.12269293
aF1381.98208589
aF1366.44552875
aa(lp436
F703.594988685
aF694.81788304
aF878.973089801
aF868.794374373
aF1054.63520025
aF1702.06637826
aF1129.7249941
aF1209.40080686
aF1358.01320381
aF1495.66108131
aF1478.69265812
aa(lp437
F692.003873149
aF683.302343091
aF864.573459164
aF854.484048684
aF1037.45303314
aF1674.63864165
aF1111.23836553
aF1189.7663924
aF1336.01403499
aF1471.59418945
aF1454.93034918
aa(lp438
F741.247170705
aF732.234896056
aF925.740620315
aF915.283218525
aF1110.43108934
aF1791.12010004
aF1189.77122222
aF1273.15506342
aF1429.44468364
aF1573.78909597
aF1555.82674272
aa(lp439
F703.594988685
aF694.81788304
aF878.973089801
aF868.794374373
aF1054.63520025
aF1702.06637826
aF1129.7249941
aF1209.40080686
aF1358.01320381
aF1495.66108131
aF1478.69265812
aa(lp440
F678.660285009
aF670.047663654
aF847.995264847
aF838.010770121
aF1017.66964168
aF1643.05595244
aF1089.95565646
aF1167.15856024
aF1310.68304074
aF1443.8790423
aF1427.56500618
aass(S'seirepi_real'
p441
I7000
I01
tp442
(dp443
g4
(lp444
(lp445
F1066.0913547434575
aF875.2800962837193
aF1016.4731106757254
aF888.940638629838
aF917.6849016762244
aF1380.8177543116187
aF1034.6174422775646
aF791761.0997800092
aF1311.2826134784182
aF1267.1734641885434
aF634816.2732997307
aa(lp446
F824.2243287908805
aF837.4107229733041
aF819.3052755451884
aF928.4983226549034
aF934.5537881995986
aF1427.1334375473136
aF1101.126182681162
aF1215.1853143262692
aF1395.5688863044077
aF1399.7452199072925
aF1371.7444528821684
aa(lp447
F1032.527421133753
aF809.2760542097227
aF5567.609554729135
aF915.1191007508066
aF906.6226444716254
aF1364.7697995635856
aF1068.4592293973046
aF1387.0499683621435
aF1255.576678922634
aF1271.0342327155824
aF961757.5274286369
aa(lp448
F849.9614649547804
aF864.9022757413035
aF832.738996738802
aF951.4801147341792
aF956.6572016107154
aF1385.6875673150723
aF1156.238083628082
aF1244.3921393151072
aF1359.8417704660756
aF1411.4032441458846
aF1448.3561121108164
aasg7
(lp449
g9
(S'\x07\xdf\x06\x03'
p450
tp451
Rp452
ag9
(S'\x07\xdf\x06\x08'
p453
tp454
Rp455
ag9
(S'\x07\xdf\x06\x18'
p456
tp457
Rp458
ag9
(S'\x07\xdf\x06\x1e'
p459
tp460
Rp461
asg13
(lp462
(lp463
F692.003873149
aF683.302343091
aF864.573459164
aF854.484048684
aF1037.45303314
aF1674.63864165
aF1111.23836553
aF1189.7663924
aF1336.01403499
aF1471.59418945
aF1454.93034918
aa(lp464
F741.247170705
aF732.234896056
aF925.740620315
aF915.283218525
aF1110.43108934
aF1791.12010004
aF1189.77122222
aF1273.15506342
aF1429.44468364
aF1573.78909597
aF1555.82674272
aa(lp465
F703.594988685
aF694.81788304
aF878.973089801
aF868.794374373
aF1054.63520025
aF1702.06637826
aF1129.7249941
aF1209.40080686
aF1358.01320381
aF1495.66108131
aF1478.69265812
aa(lp466
F678.660285009
aF670.047663654
aF847.995264847
aF838.010770121
aF1017.66964168
aF1643.05595244
aF1089.95565646
aF1167.15856024
aF1310.68304074
aF1443.8790423
aF1427.56500618
aass(g1
I3500
I01
tp467
(dp468
g4
(lp469
(lp470
F667.9017828644345
aF656.1206888992258
aF747.4443411896432
aF834.512263896381
aF938.9753509862608
aF1820.8117279096375
aF1130.8628091982653
aF1287.3575734930616
aF1491.4728338400466
aF1817.8710961035133
aF1634.5745096647736
aasg7
(lp471
g12
asg13
(lp472
(lp473
F681.503430096
aF672.871691943
aF851.527748393
aF841.520707831
aF1021.88524307
aF1649.78609004
aF1094.4905068
aF1171.97610304
aF1316.08089505
aF1449.78524072
aF1433.39674603
aass(S'seir_real'
p474
I4000
I01
tp475
(dp476
g4
(lp477
(lp478
F649.0674238585007
aF647.3183283952404
aF675.7166695538962
aF747.436686479699
aF811.5876402889816
aF951.2581371206655
aF893.4978979270777
aF927.7234812410021
aF973.4333336691554
aF1045.1266773252253
aF995.6198932058527
aa(lp479
F641.7075734814928
aF613.7203390692566
aF675.2708952450895
aF737.3452233871529
aF796.4904693832027
aF949.4851600354317
aF885.8968021746359
aF934.143180103522
aF968.4984714042785
aF1001.7198954937722
aF983.2421017631114
aa(lp480
F891.3641821507731
aF881.6260967868668
aF796.8103464350545
aF912.0086875618525
aF780.8540719586288
aF889.8603600711042
aF837.1154282304714
aF895.6810862844849
aF950.566539130889
aF990.4043066775204
aF927.7691328259317
aa(lp481
F695.3472363577965
aF707.5290430245091
aF779.419650616962
aF930.4506100326398
aF780.2969122382968
aF980.1242277918236
aF903.1759389832974
aF933.7981723821053
aF994.884477738875
aF1011.8412816973763
aF1014.0416748956022
aa(lp482
F692.8171832158822
aF686.900533417891
aF989.0412058444141
aF934.9555113983397
aF799.1179613588428
aF990.32681645908
aF895.8526159332721
aF886.9000760882252
aF954.7638793499676
aF1003.794722768945
aF965.3187721710073
aa(lp483
F658.5229016949521
aF650.484180874212
aF675.3274482896524
aF750.5525119247242
aF812.7137081356369
aF966.8358624824205
aF898.1831340529686
aF945.5596670852299
aF977.0217505994626
aF1037.6391621188684
aF1014.3340717468932
aa(lp484
F640.57465458265
aF629.7795461705192
aF643.5747540729704
aF756.6330859458732
aF787.695865000802
aF917.2101827574469
aF867.5339633369498
aF917.5710581691327
aF946.0674622915606
aF972.6182147099408
aF973.3630675069651
aa(lp485
F631.2468508646036
aF626.065248150539
aF665.9239042003707
aF735.0099307429498
aF795.8586192180202
aF943.5915754794206
aF882.530834428796
aF950.905086240193
aF976.9206721908952
aF1053.553749580972
aF993.9058949591913
aa(lp486
F643.7258214229856
aF656.1763565029026
aF630.2497374542639
aF752.5606096291519
aF808.8027414924421
aF978.5054224945467
aF907.9067251355866
aF920.8028488234518
aF983.2071542105473
aF1022.1340648850944
aF964.9793049242215
aa(lp487
F651.5786658975941
aF637.4088432068553
aF672.260998400237
aF757.8972197719131
aF815.7361235233557
aF988.0562772534145
aF933.5795355547498
aF922.9635935677334
aF995.1932097651849
aF1041.6238475473951
aF976.0738008300485
aa(lp488
F657.8282820740122
aF616.4526008263922
aF649.9335539679179
aF744.1095538919149
aF802.3430922963952
aF952.8697418484754
aF918.4264595049784
aF905.1312107981465
aF952.8299072801752
aF1029.6760970873931
aF975.9440337036489
aa(lp489
F617.1630039171687
aF609.8021004296725
aF683.9607894434178
aF748.5256786334132
aF791.2850386304981
aF952.8198099722543
aF882.322502236087
aF928.3641663159324
aF966.8312861539704
aF1022.6304035885139
aF949.0146116104025
aa(lp490
F658.8434921084411
aF610.1831204422274
aF692.0902924913664
aF749.1119050350362
aF777.8431472920648
aF965.4798376609368
aF897.5305864062994
aF955.8659801451719
aF1017.5450513969898
aF1041.0152107723334
aF980.2391204917196
aa(lp491
F622.6898226688012
aF618.5185906994278
aF650.9372258784116
aF761.4678636289004
aF771.087424276396
aF939.9440229044455
aF889.218642922283
aF935.6528357058666
aF969.0857280203512
aF1011.7574321947368
aF976.4115090642998
aa(lp492
F654.4154322794883
aF657.6090814493309
aF688.9140163892368
aF741.3200497237535
aF789.7804065833011
aF964.7727900807301
aF885.554446568081
aF955.5552482574966
aF948.50364906282
aF1015.8823363040428
aF1010.1752112023222
aa(lp493
F616.5863090793688
aF593.2929001140261
aF689.224052294732
aF739.8622126996128
aF799.1587264820848
aF940.3906557734776
aF874.2077967018357
aF929.0323354811472
aF981.666908525416
aF982.1418778898687
aF962.626880131895
aa(lp494
F676.6428156288515
aF668.9501864191554
aF703.9721563030906
aF756.5890543826256
aF814.1393179076962
aF963.4932337452814
aF884.6657927698561
aF976.999384054306
aF981.9583394244636
aF1010.5827193650335
aF1019.466144665728
aa(lp495
F610.3847698830485
aF615.3969251840847
aF692.8051130426729
aF744.017401825246
aF813.8559693084704
aF964.132515672376
aF900.5258468577371
aF961.7132493060273
aF963.9737249239951
aF1009.1697845131727
aF1002.5545818060403
aa(lp496
F617.9865760419557
aF609.341080177365
aF670.9808020524118
aF755.6075163875943
aF814.4451269884308
aF953.3834810005447
aF883.3642951192801
aF958.3331185361972
aF978.7406291400987
aF1035.1646120299697
aF1002.97158262959
aa(lp497
F642.1639693119116
aF613.2077455425357
aF672.4899461491259
aF732.8999963901069
aF783.5446489144227
aF928.3477179233979
aF898.390074405598
aF920.4877263933765
aF987.5342473692859
aF1052.0246109931268
aF965.6043390817096
aa(lp498
F611.7010232940338
aF618.3293620913649
aF689.4269549277406
aF770.8493320522044
aF811.1947365478148
aF962.260336840711
aF914.0462653052692
aF901.3009298815961
aF954.3593626180398
aF968.1800617089509
aF928.723505449062
aa(lp499
F628.869814594151
aF603.3282303867236
aF666.4504525593954
aF739.9249571939091
aF788.3916527621946
aF965.0001336904553
aF888.0872125548252
aF937.5054728819491
aF982.5000569781686
aF1026.389989161779
aF974.5694378793569
aa(lp500
F614.1965268489112
aF585.0257813423677
aF695.967005785271
aF755.2142163652304
aF815.4671763535406
aF949.3431490748277
aF889.9265259165431
aF948.1981647440903
aF967.4185133460558
aF1004.5263920258973
aF984.0438032401997
aa(lp501
F610.157649566998
aF601.0393169050643
aF641.1418695563079
aF726.9745866223473
aF773.8059793874518
aF899.3392467781047
aF862.7490760401276
aF908.125402299326
aF921.4127853013177
aF955.6410146984184
aF953.790152348253
aa(lp502
F606.9945211691752
aF587.7699224297918
aF660.559673499817
aF746.8761325624337
aF805.097775803869
aF927.5761303715817
aF888.2300382039666
aF905.6572363287123
aF931.2421623002081
aF974.9777851373897
aF953.004583524622
aa(lp503
F626.5812347545003
aF610.2686943701852
aF664.3159398565671
aF767.6231669276098
aF814.1173223430118
aF1016.6366602349572
aF916.6677499027957
aF913.521032636009
aF984.7042325869902
aF995.5162114160113
aF956.9499701796185
aa(lp504
F679.6474019972746
aF654.8346238679449
aF674.3635980936715
aF736.2165279424152
aF811.060965200958
aF924.8273136343938
aF881.4913337482069
aF925.5524974325625
aF983.425982125671
aF1040.3070783786757
aF971.6248298419731
aa(lp505
F594.4816148677598
aF605.1895323332317
aF650.0237888740654
aF755.695739070101
aF807.2423868902666
aF975.8051206473697
aF895.9306453430262
aF974.6363149874068
aF1001.1400304338162
aF1035.8497376425307
aF989.4603063414874
aa(lp506
F681.4244756084337
aF662.063395416539
aF705.9996427710308
aF762.5036359284107
aF827.3430558462359
aF1010.8008023033033
aF934.4178139729156
aF935.2357742839849
aF1033.6541994035895
aF1049.2577620213262
aF991.6349796043306
aa(lp507
F656.7753647548171
aF662.0155340717474
aF648.2361220859332
aF742.3702311587045
aF809.7722793763644
aF938.03753678453
aF902.3424085769849
aF958.492338995882
aF1030.4473558157604
aF1068.936831627301
aF1011.841452462212
aa(lp508
F709.8106162557651
aF716.4144448773152
aF832.64401471115
aF938.1042472187072
aF824.0210010051186
aF999.6385128481447
aF907.5785825866692
aF984.8706539215207
aF1072.5273826260368
aF1076.629478755847
aF1027.3499902206981
aa(lp509
F680.9854195393635
aF656.1663533070898
aF932.6456734889164
aF757.1584735924029
aF810.9029823636012
aF974.5910854980493
aF917.7789373400007
aF909.4853918460923
aF982.6120100904818
aF1047.2873260671809
aF985.0705083326809
aa(lp510
F703.8022363679866
aF761.1696286174034
aF801.4192802946912
aF896.3042704809517
aF821.1859793386919
aF995.4475899700799
aF927.2114483998959
aF995.3850646396836
aF1047.4792998229414
aF1066.063841158778
aF1052.2925471438055
aasg7
(lp511
g197
ag200
ag203
ag206
ag209
ag212
ag215
ag218
ag221
ag224
ag227
ag230
ag233
ag236
ag239
ag242
ag245
ag248
ag251
ag254
ag257
ag260
ag263
ag266
ag269
ag272
ag275
ag278
ag281
ag284
ag287
ag290
ag293
asg13
(lp512
(lp513
F694.888305806
aF686.16782602
aF868.156896067
aF858.045104247
aF1041.72904647
aF1681.46459502
aF1115.8388144
aF1194.6527503
aF1341.48892303
aF1477.58391118
aF1460.84433813
aa(lp514
F685.308014199
aF676.650841587
aF856.254663335
aF846.217615353
aF1027.52612575
aF1658.79145196
aF1100.55877713
aF1178.42236703
aF1323.30363872
aF1457.68793404
aF1441.19973825
aa(lp515
F724.223816568
aF715.315938921
aF904.597445183
aF894.263915063
aF1085.2078999
aF1750.86454238
aF1162.62392764
aF1244.33507908
aF1397.15443909
aF1538.47492993
aF1520.96280415
aa(lp516
F743.269097659
aF734.244631098
aF928.251723347
aF917.779837998
aF1113.4265903
aF1795.90062253
aF1192.99552078
aF1276.57762786
aF1433.2793453
aF1577.98252448
aF1559.96660383
aa(lp517
F737.215456766
aF728.227623632
aF920.733397164
aF910.305019894
aF1104.45785322
aF1781.58727342
aF1183.34193174
aF1266.33017645
aF1421.79802817
aF1565.42681282
aF1547.57121451
aa(lp518
F688.171763942
aF679.495556964
aF859.812575253
aF849.753062529
aF1031.77187576
aF1665.56940249
aF1105.12636279
aF1183.2742516
aF1328.73993543
aF1463.63581386
aF1447.07252416
aa(lp519
F673.000399932
aF664.426115732
aF840.962884496
aF831.023583168
aF1009.27707456
aF1629.6569413
aF1080.92790262
aF1157.5674829
aF1299.93659349
aF1432.12005854
aF1415.95412658
aa(lp520
F673.941272768
aF665.360589553
aF842.131935005
aF832.18509213
aF1010.6722636
aF1631.88444587
aF1082.42865012
aF1159.16192695
aF1301.72311358
aF1434.07495082
aF1417.88440995
aa(lp521
F689.128314157
aF680.445770371
aF861.000973344
aF850.933980231
aF1033.19000382
aF1667.83328415
aF1106.65201654
aF1184.89482486
aF1330.5557043
aF1465.6224196
aF1449.03403787
aa(lp522
F677.714527699
aF669.108286331
aF846.820186367
aF836.843214507
aF1016.26730573
aF1640.81711564
aF1088.44714976
aF1165.55597551
aF1308.88740835
aF1441.91426967
aF1425.62499278
aa(lp523
F666.441567926
aF657.912181296
aF832.813194785
aF822.926786715
aF999.550663865
aF1614.1276883
aF1070.46599894
aF1146.45183625
aF1287.48183906
aF1418.49098885
aF1402.49648087
aa(lp524
F654.387036172
aF645.941502207
aF817.833747879
aF808.046031483
aF981.671920339
aF1585.58025929
aF1051.23711925
aF1126.01874211
aF1264.58690822
aF1393.43503368
aF1377.75501366
aa(lp525
F666.441567926
aF657.912181296
aF832.813194785
aF822.926786715
aF999.550663865
aF1614.1276883
aF1070.46599894
aF1146.45183625
aF1287.48183906
aF1418.49098885
aF1402.49648087
aa(lp526
F663.645223431
aF655.135133761
aF829.338468295
aF819.474782775
aF995.403540555
aF1607.50612215
aF1066.00548954
aF1141.7122925
aF1282.17129147
aF1412.67945724
aF1396.75796884
aa(lp527
F671.121579576
aF662.560104673
aF838.628393636
aF828.704186455
aF1006.49097676
aF1625.20871856
aF1077.93105437
aF1154.38347021
aF1296.3690105
aF1428.21619121
aF1412.09938713
aa(lp528
F639.774319866
aF631.432789225
aF799.673493196
aF790.00802345
aF959.994530076
aF1550.9635351
aF1027.92593294
aF1101.24300705
aF1236.82564563
aF1363.04924962
aF1347.74945023
aa(lp529
F674.883121426
aF666.296042972
aF843.302189785
aF833.347809067
aF1012.06888045
aF1634.11421428
aF1083.93094771
aF1160.75799733
aF1303.51145409
aF1436.03181697
aF1419.81663719
aa(lp530
F637.96497955
aF629.636508645
aF797.424749247
aF787.774617961
aF957.310095791
aF1546.67643577
aF1025.03942286
aF1098.17478621
aF1233.38765867
aF1359.28591402
aF1344.03311583
aa(lp531
F637.96497955
aF629.636508645
aF797.424749247
aF787.774617961
aF957.310095791
aF1546.67643577
aF1025.03942286
aF1098.17478621
aF1233.38765867
aF1359.28591402
aF1344.03311583
aa(lp532
F659.004039957
aF650.526183922
aF823.571187797
aF813.745443649
aF988.520040645
aF1596.51515252
aF1058.60210409
aF1133.84536891
aF1273.35654899
aF1403.03279213
aF1387.23240833
aa(lp533
F634.35775019
aF626.055437006
aF792.941393904
aF783.321976593
aF951.957983238
aF1538.12878272
aF1019.28458331
aF1092.0574281
aF1226.53304118
aF1351.78240336
aF1336.62325878
aa(lp534
F642.495499733
aF634.134403725
aF803.055457168
aF793.367003241
aF964.031672019
aF1557.41080458
aF1032.26708094
aF1105.85728615
aF1241.99599706
aF1368.70875338
aF1353.33823362
aa(lp535
F622.739316795
aF614.52235813
aF778.500152213
aF768.980885758
aF934.71735119
aF1510.59243343
aF1000.74814354
aF1072.35110032
aF1204.45146682
aF1327.60848459
aF1312.7505189
aa(lp536
F650.710796922
aF642.29118304
aF813.265224961
aF803.507991654
aF976.218830796
aF1576.87261023
aF1045.37270568
aF1119.78637809
aF1257.60358265
aF1385.79194693
aF1370.20768656
aa(lp537
F621.852223492
aF613.641851604
aF777.397472908
aF767.88593065
aF933.400853763
aF1508.48962438
aF999.332791839
aF1070.84628179
aF1202.76525264
aF1325.7623665
aF1310.927367
aa(lp538
F629.870139273
aF621.600593744
aF787.363642426
aF777.782685793
aF945.299193972
aF1527.4938813
aF1012.12504895
aF1084.44643656
aF1218.00472724
aF1342.44634926
aF1327.40361964
aa(lp539
F695.851757757
aF687.124969586
aF869.353811663
aF859.234567476
aF1043.15727321
aF1683.74449568
aF1117.3754347
aF1196.28482718
aF1343.31756984
aF1479.58447947
aF1462.81960112
aa(lp540
F648.878453253
aF640.471819895
aF810.988091757
aF801.246119949
aF973.500737447
aF1572.53217883
aF1042.44967086
aF1116.67982187
aF1254.12269293
aF1381.98208589
aF1366.44552875
aa(lp541
F703.594988685
aF694.81788304
aF878.973089801
aF868.794374373
aF1054.63520025
aF1702.06637826
aF1129.7249941
aF1209.40080686
aF1358.01320381
aF1495.66108131
aF1478.69265812
aa(lp542
F692.003873149
aF683.302343091
aF864.573459164
aF854.484048684
aF1037.45303314
aF1674.63864165
aF1111.23836553
aF1189.7663924
aF1336.01403499
aF1471.59418945
aF1454.93034918
aa(lp543
F741.247170705
aF732.234896056
aF925.740620315
aF915.283218525
aF1110.43108934
aF1791.12010004
aF1189.77122222
aF1273.15506342
aF1429.44468364
aF1573.78909597
aF1555.82674272
aa(lp544
F703.594988685
aF694.81788304
aF878.973089801
aF868.794374373
aF1054.63520025
aF1702.06637826
aF1129.7249941
aF1209.40080686
aF1358.01320381
aF1495.66108131
aF1478.69265812
aa(lp545
F678.660285009
aF670.047663654
aF847.995264847
aF838.010770121
aF1017.66964168
aF1643.05595244
aF1089.95565646
aF1167.15856024
aF1310.68304074
aF1443.8790423
aF1427.56500618
aass(S'seirepi_mag'
p546
I7000
I01
tp547
(dp548
g4
(lp549
(lp550
F585837.1326948497
aF962.894488839641
aF690.6930594171557
aF830.6126899019417
aF869.5354106931051
aF1675.762004579994
aF1059.908953264345
aF1605.4626969323733
aF1454.2671623471765
aF1375.0891573338754
aF1691.9432317305113
aa(lp551
F655.7578253797719
aF664.796014222733
aF753.2068312335366
aF859.7051035168688
aF929.021708774751
aF1833.0152942284049
aF1161.5122522981528
aF1303.48443104479
aF1609.2982981921755
aF1593.9891735877075
aF1583.2328356871642
aa(lp552
F571.7691683432117
aF526.7496237386781
aF727.4076139856019
aF826.2725806099096
aF862.8397426549998
aF1705.6237715506777
aF1106.0236230314295
aF1161.0504720241515
aF1402.3604360427646
aF1469.2478514547397
aF1471.8697429778827
aa(lp553
F696.5788603099969
aF711.922528874601
aF784.884035130807
aF914.9322798050962
aF968.0205734484155
aF1668.97895114817
aF1243.971390938602
aF1368.167486204191
aF1593.919728508189
aF1627.8792511811896
aF1736.181447265453
aasg7
(lp554
g452
ag455
ag458
ag461
asg13
(lp555
(lp556
F692.003873149
aF683.302343091
aF864.573459164
aF854.484048684
aF1037.45303314
aF1674.63864165
aF1111.23836553
aF1189.7663924
aF1336.01403499
aF1471.59418945
aF1454.93034918
aa(lp557
F741.247170705
aF732.234896056
aF925.740620315
aF915.283218525
aF1110.43108934
aF1791.12010004
aF1189.77122222
aF1273.15506342
aF1429.44468364
aF1573.78909597
aF1555.82674272
aa(lp558
F703.594988685
aF694.81788304
aF878.973089801
aF868.794374373
aF1054.63520025
aF1702.06637826
aF1129.7249941
aF1209.40080686
aF1358.01320381
aF1495.66108131
aF1478.69265812
aa(lp559
F678.660285009
aF670.047663654
aF847.995264847
aF838.010770121
aF1017.66964168
aF1643.05595244
aF1089.95565646
aF1167.15856024
aF1310.68304074
aF1443.8790423
aF1427.56500618
aass(S'orig_spgr_mag'
p560
F14.0
I01
tp561
(dp562
g4
(lp563
(lp564
F641.2662730249854
aF688.1616977260761
aF656.2441474905548
aF831.1280179189491
aF879.3526243098922
aF1790.2654188928063
aF1179.2171237509422
aF1363.2842778044323
aF1672.0948368962995
aF1875.0480706490746
aF1801.378878818288
aa(lp565
F601.8781129537542
aF637.0350127187697
aF609.0662493685963
aF785.4564604271658
aF803.4233738161488
aF1800.203025513409
aF1089.337000564997
aF1394.9012441007214
aF1571.0305907561815
aF1775.9440268150283
aF1763.8570989059479
aa(lp566
F607.2085661901416
aF752.9578979559876
aF1105.420684909642
aF864.1489028278476
aF908.3409827500594
aF1957.3766468652027
aF1247.5246330254665
aF1350.4507624868982
aF1785.7987527214332
aF1669.6472219678158
aF1826.7611977537088
aa(lp567
F613.8300653512891
aF955940.8240424572
aF775.4233441749795
aF833.6414185689931
aF794.9744760320791
aF1796.0872130539199
aF1169.9230172692628
aF1312.4218931265582
aF1706.3489279003256
aF1654.1788292765182
aF3810163.839092853
aa(lp568
F698.5045006559532
aF750.2137847227704
aF722.2831496428521
aF922.1132752951664
aF975.5686596665427
aF2065.2538918833716
aF1277.902262797486
aF1598.350220268191
aF1924.8607864879687
aF2078.273345561442
aF2011.589466718664
aa(lp569
F637.583656124092
aF747.2507590678842
aF683.9620927912329
aF868.9499707228189
aF947.2936852871198
aF1951.5728536612576
aF1241.6822524244092
aF1357.4090251928378
aF1707.2832768855267
aF1810.5313934934218
aF1811.0907874630486
aa(lp570
F763.760568219623
aF802.2861509619846
aF784.5662668201206
aF993.8623274112263
aF1033.2909879359424
aF2190.575683489958
aF1415.7087404703793
aF1723.982656282763
aF1972.2298641554582
aF2217.302785937436
aF2185.3307304202576
aasg7
(lp571
g414
ag417
ag420
ag423
ag426
ag429
ag432
asg13
(lp572
(lp573
F695.851757757
aF687.124969586
aF869.353811663
aF859.234567476
aF1043.15727321
aF1683.74449568
aF1117.3754347
aF1196.28482718
aF1343.31756984
aF1479.58447947
aF1462.81960112
aa(lp574
F648.878453253
aF640.471819895
aF810.988091757
aF801.246119949
aF973.500737447
aF1572.53217883
aF1042.44967086
aF1116.67982187
aF1254.12269293
aF1381.98208589
aF1366.44552875
aa(lp575
F703.594988685
aF694.81788304
aF878.973089801
aF868.794374373
aF1054.63520025
aF1702.06637826
aF1129.7249941
aF1209.40080686
aF1358.01320381
aF1495.66108131
aF1478.69265812
aa(lp576
F692.003873149
aF683.302343091
aF864.573459164
aF854.484048684
aF1037.45303314
aF1674.63864165
aF1111.23836553
aF1189.7663924
aF1336.01403499
aF1471.59418945
aF1454.93034918
aa(lp577
F741.247170705
aF732.234896056
aF925.740620315
aF915.283218525
aF1110.43108934
aF1791.12010004
aF1189.77122222
aF1273.15506342
aF1429.44468364
aF1573.78909597
aF1555.82674272
aa(lp578
F703.594988685
aF694.81788304
aF878.973089801
aF868.794374373
aF1054.63520025
aF1702.06637826
aF1129.7249941
aF1209.40080686
aF1358.01320381
aF1495.66108131
aF1478.69265812
aa(lp579
F678.660285009
aF670.047663654
aF847.995264847
aF838.010770121
aF1017.66964168
aF1643.05595244
aF1089.95565646
aF1167.15856024
aF1310.68304074
aF1443.8790423
aF1427.56500618
aass(S'seirepi_mag'
p580
I6630
I01
tp581
(dp582
g4
(lp583
(lp584
F630.5424403879465
aF642.5532243913428
aF683.5634501423307
aF801.39001737322
aF908.0433524259623
aF1655.314304488254
aF1083.6868263310894
aF1197.3280052681234
aF1417.4325633358142
aF1567.9002602797132
aF1499.6152149730804
aa(lp585
F580.6033771957264
aF594.4456417872731
aF641.0234885254649
aF742.5117737976971
aF832.0033649592824
aF1633.7949562930803
aF1016.0994492490308
aF1177.871212698459
aF1358.2689503753763
aF1483.6754791881945
aF1433.570451105742
aa(lp586
F650.4562985492715
aF635.888033666979
aF739.0430404355453
aF830.1626324094077
aF854.2087091450412
aF1828.3128029342495
aF1140.3510102025798
aF1215.2680804414174
aF1521.6537691257038
aF1470.1131019122786
aF1519.3108633644542
aasg7
(lp587
g9
(S'\x07\xdf\x05\x0b'
p588
tp589
Rp590
ag9
(S'\x07\xdf\x05\x0c'
p591
tp592
Rp593
ag9
(S'\x07\xdf\x05\x14'
p594
tp595
Rp596
asg13
(lp597
(lp598
F695.851757757
aF687.124969586
aF869.353811663
aF859.234567476
aF1043.15727321
aF1683.74449568
aF1117.3754347
aF1196.28482718
aF1343.31756984
aF1479.58447947
aF1462.81960112
aa(lp599
F648.878453253
aF640.471819895
aF810.988091757
aF801.246119949
aF973.500737447
aF1572.53217883
aF1042.44967086
aF1116.67982187
aF1254.12269293
aF1381.98208589
aF1366.44552875
aa(lp600
F703.594988685
aF694.81788304
aF878.973089801
aF868.794374373
aF1054.63520025
aF1702.06637826
aF1129.7249941
aF1209.40080686
aF1358.01320381
aF1495.66108131
aF1478.69265812
aass(S'seirepi_real'
p601
I7000
I00
tp602
(dp603
g4
(lp604
(lp605
F1145.3044818981891
aF899.1533856693528
aF1183.9138827460115
aF931.1654436261606
aF1002.484107019219
aF1409.9602344212583
aF1031.7872889739751
aF746544.326655273
aF1170.181466905027
aF1173.1053482723316
aF603586.1991305511
aa(lp606
F872.1819218902345
aF864.7505588420237
aF949.1942086280203
aF955.9168437803446
aF1016.7542075648365
aF1389.0150496453934
aF1088.6403012409962
aF1116.4171106965277
aF1208.5349226930223
aF1224.6521173665483
aF1257.5344596866364
aa(lp607
F1113.4621057186455
aF848.3405973018866
aF6407.050072773351
aF938.7818097866052
aF999.6040361597688
aF1344.881610268497
aF1049.3585245191382
aF1376.1914296646178
aF1174.7827688075413
aF1184.2263102087106
aF927564.5482926111
aa(lp608
F886.1840547907768
aF880.6681918439482
aF964.7478680445329
aF981.6678501048812
aF1046.0129462562688
aF1400.0592226276558
aF1126.5916152222276
aF1133.5533926126325
aF1231.9138185998468
aF1249.218437889054
aF1290.3908865721148
aasg7
(lp609
g452
ag455
ag458
ag461
asg13
(lp610
(lp611
F692.003873149
aF683.302343091
aF864.573459164
aF854.484048684
aF1037.45303314
aF1674.63864165
aF1111.23836553
aF1189.7663924
aF1336.01403499
aF1471.59418945
aF1454.93034918
aa(lp612
F741.247170705
aF732.234896056
aF925.740620315
aF915.283218525
aF1110.43108934
aF1791.12010004
aF1189.77122222
aF1273.15506342
aF1429.44468364
aF1573.78909597
aF1555.82674272
aa(lp613
F703.594988685
aF694.81788304
aF878.973089801
aF868.794374373
aF1054.63520025
aF1702.06637826
aF1129.7249941
aF1209.40080686
aF1358.01320381
aF1495.66108131
aF1478.69265812
aa(lp614
F678.660285009
aF670.047663654
aF847.995264847
aF838.010770121
aF1017.66964168
aF1643.05595244
aF1089.95565646
aF1167.15856024
aF1310.68304074
aF1443.8790423
aF1427.56500618
aass(S'seir_real'
p615
I3500
I00
tp616
(dp617
g4
(lp618
(lp619
F678.7628868878844
aF539.9162593611055
aF713.5163666902371
aF815.8153130366214
aF542.919481911338
aF1039.5498922091656
aF750.7947640375327
aF921.469209329041
aF990.7036418937246
aF780.9945356939223
aF1006.6388967805831
aasg7
(lp620
g12
asg13
(lp621
(lp622
F681.503430096
aF672.871691943
aF851.527748393
aF841.520707831
aF1021.88524307
aF1649.78609004
aF1094.4905068
aF1171.97610304
aF1316.08089505
aF1449.78524072
aF1433.39674603
aass(S'seirepi_mag'
p623
I7000
I00
tp624
(dp625
g4
(lp626
(lp627
F633294.75368533
aF982.2932681128524
aF809.6721305403478
aF873.2759440104221
aF949.3768199033536
aF1712.6587697835675
aF1057.2455161710714
aF1506.5754368487637
aF1300.7181301039323
aF1269.127164984575
aF1598.911424939154
aa(lp628
F691.3780673118567
aF688.6094694017316
aF868.186641408423
aF885.279499338479
aF1015.0979263317801
aF1785.5073451944522
aF1148.6869365926802
aF1195.4285023481993
aF1392.8707129813745
aF1391.8546863489926
aF1450.625088546396
aa(lp629
F595.0945624852737
aF557.7073790705706
aF841.1250067472598
aF838.48307662351
aF954.9375524189915
aF1686.6716547135877
aF1080.8733990096443
aF1148.8223076999202
aF1315.3690723038826
aF1323.1961363995313
aF1381.9380624134694
aa(lp630
F724.8872806961045
aF728.4567618150965
aF905.9896587189181
aF947.9596488178377
aF1069.012974363111
aF1669.660921303793
aF1211.33942086034
aF1247.2183983836937
aF1440.9462128402101
aF1437.4441540465994
aF1505.2551859254156
aasg7
(lp631
g452
ag455
ag458
ag461
asg13
(lp632
(lp633
F692.003873149
aF683.302343091
aF864.573459164
aF854.484048684
aF1037.45303314
aF1674.63864165
aF1111.23836553
aF1189.7663924
aF1336.01403499
aF1471.59418945
aF1454.93034918
aa(lp634
F741.247170705
aF732.234896056
aF925.740620315
aF915.283218525
aF1110.43108934
aF1791.12010004
aF1189.77122222
aF1273.15506342
aF1429.44468364
aF1573.78909597
aF1555.82674272
aa(lp635
F703.594988685
aF694.81788304
aF878.973089801
aF868.794374373
aF1054.63520025
aF1702.06637826
aF1129.7249941
aF1209.40080686
aF1358.01320381
aF1495.66108131
aF1478.69265812
aa(lp636
F678.660285009
aF670.047663654
aF847.995264847
aF838.010770121
aF1017.66964168
aF1643.05595244
aF1089.95565646
aF1167.15856024
aF1310.68304074
aF1443.8790423
aF1427.56500618
aass(S'seir_mag'
p637
I4000
I00
tp638
(dp639
g4
(lp640
(lp641
F675.1615154230203
aF668.604988290385
aF864.5068014802183
aF839.6211207932254
aF1034.8310434385799
aF1733.9306744663102
aF1108.7212885697509
aF1191.0390518761474
aF1366.753842969859
aF1524.0861884637475
aF1504.5151513251794
aa(lp642
F683.4392178197487
aF651.1102138389929
aF854.7698932480964
aF827.6241991459665
aF1019.9623837825317
aF1689.1299841855684
aF1112.2518775315973
aF1185.3791068366943
aF1338.4226795732818
aF1477.8365281993997
aF1456.067625137241
aa(lp643
F917.6879154095157
aF949.7727381105233
aF989.2399340634877
aF1101.0730929374683
aF1217.7354982753318
aF1877.035028373399
aF1255.401292007142
aF947.9672088430572
aF1289.8776824177846
aF1566.8293856237171
aF1027.9275915185897
aa(lp644
F742.4341128184326
aF746.319560643327
aF956.4900126999271
aF932.9099396743974
aF1151.851110913508
aF1895.6644411056513
aF1228.8044132260234
aF1323.4997722953724
aF1500.1924239413354
aF1653.863715387484
aF1622.0523148926973
aa(lp645
F726.54128088394
aF716.9274443562405
aF909.0211602825026
aF910.5303741067452
aF1113.2625120296736
aF1890.9396012287589
aF1203.3241383875993
aF1270.9313597952123
aF1496.4694555848037
aF1642.1065256647464
aF1566.1143866275593
aa(lp646
F702.2762859066646
aF679.5870723197726
aF880.1459220974657
aF861.6246696959233
aF1061.5228558531567
aF1811.4427786424963
aF1137.8207831630452
aF1233.3619933598668
aF1404.4944384760106
aF1556.9462083372437
aF1506.4662598020193
aa(lp647
F692.7363585379865
aF666.9015550336037
aF873.328658638476
aF847.9394716030768
aF1028.3612897068203
aF1739.3950701796534
aF1115.7628263551164
aF1184.1890695954694
aF1369.6781488668278
aF1554.4308483702837
aF1445.6280023339912
aa(lp648
F674.290467798624
aF668.0939419493612
aF860.4665302872571
aF841.0572463691011
aF1027.2832276388447
aF1745.6540290122582
aF1113.1020853218424
aF1189.8707285498938
aF1374.1346092007439
aF1532.087169996557
aF1496.37046220085
aa(lp649
F679.8290204999922
aF696.5050464388844
aF853.3755556175645
aF863.5563229761777
aF1066.5957085410648
aF1815.3457801071136
aF1114.3941592018361
aF1216.1699462140723
aF1412.8779768427542
aF1529.7737058146147
aF1491.3075434012326
aa(lp650
F664.9158549441164
aF675.9198091041358
aF840.1170805232513
aF827.9382343923545
aF1024.182088178105
aF1679.0814340164955
aF1106.5846766969587
aF1185.7979776392908
aF1356.553128117308
aF1506.7846270510136
aF1443.7298771061699
aa(lp651
F688.312432134579
aF657.4324109543362
aF851.6404133519568
aF834.8947563885016
aF1018.1017699586404
aF1764.5599197003703
aF1085.310824295543
aF1179.3016000797234
aF1376.8327753594795
aF1500.5586771221822
aF1463.6412252897876
aa(lp652
F649.4433850743883
aF658.2310299232076
aF830.5863603083309
aF822.9963453489512
aF998.0410838134595
aF1672.2133383451373
aF1102.1143425781922
aF1149.8806268703222
aF1355.3116774629345
aF1458.2022565538086
aF1401.311188280393
aa(lp653
F690.2001785273831
aF655.0444781918103
aF849.7134611524566
aF833.6314638484789
aF1024.180426309601
aF1789.2691394214114
aF1070.2994701604337
aF1179.6776344726416
aF1382.2701401372447
aF1518.4276984475177
aF1472.1904807218336
aa(lp654
F659.3466905088206
aF668.3795636421664
aF827.762450902128
aF832.2931281049009
aF1016.8671887087601
aF1747.8509916511173
aF1101.974862414154
aF1172.896596021905
aF1359.2972566851192
aF1453.3054454116855
aF1445.0155979418348
aa(lp655
F689.4775372677427
aF685.1795509429949
aF867.3915497665782
aF843.1935188387733
aF1046.8940625167263
aF1702.177055379116
aF1121.879611872364
aF1200.723295061179
aF1389.2336788193827
aF1533.470952554988
aF1467.64956857215
aa(lp656
F664.3660424013157
aF642.7284376203589
aF829.7614285917333
aF804.8088230032491
aF983.2152308272018
aF1647.517838689589
aF1088.108025588087
aF1149.7925200505624
aF1340.2995826492618
aF1451.3079897413636
aF1425.2872535386027
aa(lp657
F693.9074208260784
aF684.1223707742756
aF879.852664610301
aF858.4479729229238
aF1054.262376883499
aF1794.255931661517
aF1137.29554828743
aF1211.396897815574
aF1404.4973684082997
aF1562.4935355853154
aF1507.958555046407
aa(lp658
F636.7132697875704
aF638.3524954557101
aF810.0414117228814
aF793.202659757316
aF988.3316330647631
aF1618.5690197601073
aF1076.4424434216994
aF1145.2488197176406
aF1316.2709871388304
aF1459.823369469321
aF1395.8926631479346
aa(lp659
F644.0795604982397
aF647.6236866068365
aF804.465557913921
aF804.0770028148979
aF997.6967441590888
aF1657.911677770876
aF1062.6815390249221
aF1149.3565552778484
aF1320.6834344959188
aF1451.9838983513278
aF1434.503466895164
aa(lp660
F668.3966892746641
aF664.7665259960786
aF841.6573468857275
aF828.2503721851864
aF1027.9407836276878
aF1760.6011476674973
aF1067.2069423487765
aF1155.4548479787957
aF1353.2340285947494
aF1503.527885309956
aF1444.7718402954692
aa(lp661
F637.649637838829
aF643.8970110195172
aF811.2708655847725
aF805.1082468209123
aF967.758151262941
aF1615.9879706773581
aF1070.8635173081454
aF1120.088603617962
aF1321.1052518128781
aF1449.4909296816013
aF1376.5164256222542
aa(lp662
F662.5590732622002
aF649.3333209518379
aF822.2198936297254
aF816.0798346171663
aF1001.3317751850208
aF1695.2591349968625
aF1074.1794566392095
aF1144.3267194382202
aF1341.3938915829867
aF1479.973235967084
aF1428.204520633436
aa(lp663
F636.5179557491456
aF627.0563475642136
aF802.5151211323099
aF805.8889858818656
aF947.6274585444316
aF1627.4433175981424
aF1047.7646864895469
aF1111.6591401564385
aF1299.4561031785506
aF1419.7597937200042
aF1370.247020916184
aa(lp664
F672.1850666195012
aF654.0162820827102
aF833.1875392369674
aF823.0904084549554
aF1006.9825887397085
aF1713.2431883314416
aF1102.847230997801
aF1160.3265229268568
aF1347.868119541777
aF1470.1533457570602
aF1437.6790387259514
aa(lp665
F637.3387830672069
aF629.507236043102
aF798.4148246656746
aF801.1235203669937
aF961.2697104070692
aF1651.7343962574193
aF1012.7872747708947
aF1127.3886796915685
aF1280.7559075114357
aF1402.8099366057363
aF1375.0742144867572
aa(lp666
F654.4338393951806
aF629.5223452910395
aF818.1619118635014
aF788.7004307063407
aF967.1258317979871
aF1636.097205989407
aF1061.483900393646
aF1141.0785276977101
aF1297.4016156874409
aF1423.0861246032518
aF1380.788216829972
aa(lp667
F712.8955796960827
aF692.9033677381912
aF894.7536484954239
aF869.3232051980957
aF1055.7489550987011
aF1818.1035309753167
aF1135.129754995408
aF1218.793613399058
aF1409.409676519334
aF1546.5360815120953
aF1487.4377857251732
aa(lp668
F633.5922095887704
aF637.0318460955119
aF813.1471607578615
aF802.2077456444645
aF994.2252338688853
aF1665.5209909699097
aF1065.9682975069047
aF1141.7193492900203
aF1301.0262948407872
aF1438.5961988124986
aF1402.0440457668083
aa(lp669
F710.2310450331277
aF693.4862062049697
aF898.5094594905689
aF878.4413049713386
aF1063.7984979356143
aF1787.917266478578
aF1167.1802403143818
aF1237.6563092031802
aF1425.8949209096095
aF1547.6745032000301
aF1504.417823857945
aa(lp670
F678.1362190620791
aF693.4059143982952
aF864.3919848870755
aF858.0793084854752
aF1064.6260215985862
aF1773.4071770435257
aF1145.1122461032894
aF1235.043676288112
aF1431.6419609290174
aF1511.8759960104212
aF1533.7365993432675
aa(lp671
F753.1856063028904
aF736.5125013745504
aF926.7530525156212
aF918.3698158428275
aF1136.0843464257403
aF1917.5380260274237
aF1201.5093080488602
aF1306.020319806023
aF1509.317563544107
aF1666.6768373303942
aF1606.8028193721423
aa(lp672
F712.0397369026801
aF695.7479826544964
aF894.8755856759823
aF874.7884149198716
aF1073.678994985106
aF1783.6471749097288
aF1167.2416857611083
aF1227.1272065827898
aF1445.0905742255768
aF1610.8967272511256
aF1498.6815648596087
aa(lp673
F750.422865690555
aF778.2284106315165
aF963.5403597471786
aF961.5821938498417
aF1187.1387988834265
aF1995.7873579822501
aF1283.8560330398482
aF1364.2836144004768
aF1590.234074107147
aF1707.0097402141305
aF1665.4359746688774
aasg7
(lp674
g197
ag200
ag203
ag206
ag209
ag212
ag215
ag218
ag221
ag224
ag227
ag230
ag233
ag236
ag239
ag242
ag245
ag248
ag251
ag254
ag257
ag260
ag263
ag266
ag269
ag272
ag275
ag278
ag281
ag284
ag287
ag290
ag293
asg13
(lp675
(lp676
F694.888305806
aF686.16782602
aF868.156896067
aF858.045104247
aF1041.72904647
aF1681.46459502
aF1115.8388144
aF1194.6527503
aF1341.48892303
aF1477.58391118
aF1460.84433813
aa(lp677
F685.308014199
aF676.650841587
aF856.254663335
aF846.217615353
aF1027.52612575
aF1658.79145196
aF1100.55877713
aF1178.42236703
aF1323.30363872
aF1457.68793404
aF1441.19973825
aa(lp678
F724.223816568
aF715.315938921
aF904.597445183
aF894.263915063
aF1085.2078999
aF1750.86454238
aF1162.62392764
aF1244.33507908
aF1397.15443909
aF1538.47492993
aF1520.96280415
aa(lp679
F743.269097659
aF734.244631098
aF928.251723347
aF917.779837998
aF1113.4265903
aF1795.90062253
aF1192.99552078
aF1276.57762786
aF1433.2793453
aF1577.98252448
aF1559.96660383
aa(lp680
F737.215456766
aF728.227623632
aF920.733397164
aF910.305019894
aF1104.45785322
aF1781.58727342
aF1183.34193174
aF1266.33017645
aF1421.79802817
aF1565.42681282
aF1547.57121451
aa(lp681
F688.171763942
aF679.495556964
aF859.812575253
aF849.753062529
aF1031.77187576
aF1665.56940249
aF1105.12636279
aF1183.2742516
aF1328.73993543
aF1463.63581386
aF1447.07252416
aa(lp682
F673.000399932
aF664.426115732
aF840.962884496
aF831.023583168
aF1009.27707456
aF1629.6569413
aF1080.92790262
aF1157.5674829
aF1299.93659349
aF1432.12005854
aF1415.95412658
aa(lp683
F673.941272768
aF665.360589553
aF842.131935005
aF832.18509213
aF1010.6722636
aF1631.88444587
aF1082.42865012
aF1159.16192695
aF1301.72311358
aF1434.07495082
aF1417.88440995
aa(lp684
F689.128314157
aF680.445770371
aF861.000973344
aF850.933980231
aF1033.19000382
aF1667.83328415
aF1106.65201654
aF1184.89482486
aF1330.5557043
aF1465.6224196
aF1449.03403787
aa(lp685
F677.714527699
aF669.108286331
aF846.820186367
aF836.843214507
aF1016.26730573
aF1640.81711564
aF1088.44714976
aF1165.55597551
aF1308.88740835
aF1441.91426967
aF1425.62499278
aa(lp686
F666.441567926
aF657.912181296
aF832.813194785
aF822.926786715
aF999.550663865
aF1614.1276883
aF1070.46599894
aF1146.45183625
aF1287.48183906
aF1418.49098885
aF1402.49648087
aa(lp687
F654.387036172
aF645.941502207
aF817.833747879
aF808.046031483
aF981.671920339
aF1585.58025929
aF1051.23711925
aF1126.01874211
aF1264.58690822
aF1393.43503368
aF1377.75501366
aa(lp688
F666.441567926
aF657.912181296
aF832.813194785
aF822.926786715
aF999.550663865
aF1614.1276883
aF1070.46599894
aF1146.45183625
aF1287.48183906
aF1418.49098885
aF1402.49648087
aa(lp689
F663.645223431
aF655.135133761
aF829.338468295
aF819.474782775
aF995.403540555
aF1607.50612215
aF1066.00548954
aF1141.7122925
aF1282.17129147
aF1412.67945724
aF1396.75796884
aa(lp690
F671.121579576
aF662.560104673
aF838.628393636
aF828.704186455
aF1006.49097676
aF1625.20871856
aF1077.93105437
aF1154.38347021
aF1296.3690105
aF1428.21619121
aF1412.09938713
aa(lp691
F639.774319866
aF631.432789225
aF799.673493196
aF790.00802345
aF959.994530076
aF1550.9635351
aF1027.92593294
aF1101.24300705
aF1236.82564563
aF1363.04924962
aF1347.74945023
aa(lp692
F674.883121426
aF666.296042972
aF843.302189785
aF833.347809067
aF1012.06888045
aF1634.11421428
aF1083.93094771
aF1160.75799733
aF1303.51145409
aF1436.03181697
aF1419.81663719
aa(lp693
F637.96497955
aF629.636508645
aF797.424749247
aF787.774617961
aF957.310095791
aF1546.67643577
aF1025.03942286
aF1098.17478621
aF1233.38765867
aF1359.28591402
aF1344.03311583
aa(lp694
F637.96497955
aF629.636508645
aF797.424749247
aF787.774617961
aF957.310095791
aF1546.67643577
aF1025.03942286
aF1098.17478621
aF1233.38765867
aF1359.28591402
aF1344.03311583
aa(lp695
F659.004039957
aF650.526183922
aF823.571187797
aF813.745443649
aF988.520040645
aF1596.51515252
aF1058.60210409
aF1133.84536891
aF1273.35654899
aF1403.03279213
aF1387.23240833
aa(lp696
F634.35775019
aF626.055437006
aF792.941393904
aF783.321976593
aF951.957983238
aF1538.12878272
aF1019.28458331
aF1092.0574281
aF1226.53304118
aF1351.78240336
aF1336.62325878
aa(lp697
F642.495499733
aF634.134403725
aF803.055457168
aF793.367003241
aF964.031672019
aF1557.41080458
aF1032.26708094
aF1105.85728615
aF1241.99599706
aF1368.70875338
aF1353.33823362
aa(lp698
F622.739316795
aF614.52235813
aF778.500152213
aF768.980885758
aF934.71735119
aF1510.59243343
aF1000.74814354
aF1072.35110032
aF1204.45146682
aF1327.60848459
aF1312.7505189
aa(lp699
F650.710796922
aF642.29118304
aF813.265224961
aF803.507991654
aF976.218830796
aF1576.87261023
aF1045.37270568
aF1119.78637809
aF1257.60358265
aF1385.79194693
aF1370.20768656
aa(lp700
F621.852223492
aF613.641851604
aF777.397472908
aF767.88593065
aF933.400853763
aF1508.48962438
aF999.332791839
aF1070.84628179
aF1202.76525264
aF1325.7623665
aF1310.927367
aa(lp701
F629.870139273
aF621.600593744
aF787.363642426
aF777.782685793
aF945.299193972
aF1527.4938813
aF1012.12504895
aF1084.44643656
aF1218.00472724
aF1342.44634926
aF1327.40361964
aa(lp702
F695.851757757
aF687.124969586
aF869.353811663
aF859.234567476
aF1043.15727321
aF1683.74449568
aF1117.3754347
aF1196.28482718
aF1343.31756984
aF1479.58447947
aF1462.81960112
aa(lp703
F648.878453253
aF640.471819895
aF810.988091757
aF801.246119949
aF973.500737447
aF1572.53217883
aF1042.44967086
aF1116.67982187
aF1254.12269293
aF1381.98208589
aF1366.44552875
aa(lp704
F703.594988685
aF694.81788304
aF878.973089801
aF868.794374373
aF1054.63520025
aF1702.06637826
aF1129.7249941
aF1209.40080686
aF1358.01320381
aF1495.66108131
aF1478.69265812
aa(lp705
F692.003873149
aF683.302343091
aF864.573459164
aF854.484048684
aF1037.45303314
aF1674.63864165
aF1111.23836553
aF1189.7663924
aF1336.01403499
aF1471.59418945
aF1454.93034918
aa(lp706
F741.247170705
aF732.234896056
aF925.740620315
aF915.283218525
aF1110.43108934
aF1791.12010004
aF1189.77122222
aF1273.15506342
aF1429.44468364
aF1573.78909597
aF1555.82674272
aa(lp707
F703.594988685
aF694.81788304
aF878.973089801
aF868.794374373
aF1054.63520025
aF1702.06637826
aF1129.7249941
aF1209.40080686
aF1358.01320381
aF1495.66108131
aF1478.69265812
aa(lp708
F678.660285009
aF670.047663654
aF847.995264847
aF838.010770121
aF1017.66964168
aF1643.05595244
aF1089.95565646
aF1167.15856024
aF1310.68304074
aF1443.8790423
aF1427.56500618
aass(S'seirepi_mag'
p709
I6630
I00
tp710
(dp711
g4
(lp712
(lp713
F668.971887004212
aF674.7904901282213
aF826.7520732538607
aF847.0568661652597
aF1008.3153689808491
aF1730.8930122022693
aF1102.8323302204367
aF1185.0506180394136
aF1312.5692289836952
aF1407.191519826627
aF1434.6115757982582
aa(lp714
F616.3991318909199
aF624.5018529616997
aF764.1094964969798
aF768.3823619573016
aF940.7608876868477
aF1590.6940513681166
aF1020.9838939587987
aF1081.7977464145436
aF1233.287081224222
aF1310.647054019946
aF1320.2081801410839
aa(lp715
F678.7014889143661
aF674.4745014554998
aF847.2819664038939
aF848.1807421807081
aF927.0542840124093
aF1742.247956414692
aF1095.327023723142
aF1167.265517994264
aF1343.2428127485277
aF1297.5580990919912
aF1415.8068502820531
aasg7
(lp716
g590
ag593
ag596
asg13
(lp717
(lp718
F695.851757757
aF687.124969586
aF869.353811663
aF859.234567476
aF1043.15727321
aF1683.74449568
aF1117.3754347
aF1196.28482718
aF1343.31756984
aF1479.58447947
aF1462.81960112
aa(lp719
F648.878453253
aF640.471819895
aF810.988091757
aF801.246119949
aF973.500737447
aF1572.53217883
aF1042.44967086
aF1116.67982187
aF1254.12269293
aF1381.98208589
aF1366.44552875
aa(lp720
F703.594988685
aF694.81788304
aF878.973089801
aF868.794374373
aF1054.63520025
aF1702.06637826
aF1129.7249941
aF1209.40080686
aF1358.01320381
aF1495.66108131
aF1478.69265812
aass(g615
I3500
I01
tp721
(dp722
g4
(lp723
(lp724
F490.9392794192008
aF712.1688295751579
aF406.07025659785626
aF664.0824458400626
aF1227.823909130139
aF802.4472563070061
aF1156.7464031240224
aF630.7645700464047
aF1273.6886802768367
aF1163.6595369398606
aF1143.5184721672433
aasg7
(lp725
g12
asg13
(lp726
(lp727
F681.503430096
aF672.871691943
aF851.527748393
aF841.520707831
aF1021.88524307
aF1649.78609004
aF1094.4905068
aF1171.97610304
aF1316.08089505
aF1449.78524072
aF1433.39674603
aass(S'seirepi_real'
p728
I6630
I01
tp729
(dp730
g4
(lp731
(lp732
F626.6095895812603
aF608.2662045937599
aF992.8789839187328
aF1027.98416068231
aF798.8781515628592
aF973.6309347990504
aF896.6642925021641
aF963.1609443463948
aF1025.5388565314568
aF1083.229513859335
aF1027.885830577583
aa(lp733
F591.4775542408807
aF582.239351000379
aF667.2233914412537
aF740.5725254973904
aF796.8583451739722
aF1026.2254556356445
aF886.3350292791292
aF981.0508151517591
aF1032.3582471439875
aF1081.6778743117288
aF1036.0252206824166
aa(lp734
F619.359901444958
aF581.9047826066516
aF955.0243821687234
aF940.1500946619286
aF838.2024933470403
aF1067.3788503026385
aF949.8602096789145
aF971.9313415140481
aF1080.7545717855558
aF1059.6743994004196
aF1043.5889199238613
aasg7
(lp735
g590
ag593
ag596
asg13
(lp736
(lp737
F695.851757757
aF687.124969586
aF869.353811663
aF859.234567476
aF1043.15727321
aF1683.74449568
aF1117.3754347
aF1196.28482718
aF1343.31756984
aF1479.58447947
aF1462.81960112
aa(lp738
F648.878453253
aF640.471819895
aF810.988091757
aF801.246119949
aF973.500737447
aF1572.53217883
aF1042.44967086
aF1116.67982187
aF1254.12269293
aF1381.98208589
aF1366.44552875
aa(lp739
F703.594988685
aF694.81788304
aF878.973089801
aF868.794374373
aF1054.63520025
aF1702.06637826
aF1129.7249941
aF1209.40080686
aF1358.01320381
aF1495.66108131
aF1478.69265812
aass(S'orig_spgr_mag'
p740
F5.6
I01
tp741
(dp742
g4
(lp743
(lp744
F657.8656148589694
aF640.3354459880165
aF648.9767142033471
aF800.1877084221813
aF840.855679926185
aF1598.9161213834227
aF1080.3271875041385
aF1238.594265679445
aF1456.2311803351847
aF1711.111826779428
aF1679.2834022086952
aa(lp745
F616.12049446336
aF614.4411994982511
aF601.826062666181
aF761.5038441412603
aF803.526862146673
aF1549.5961794341388
aF1035.616407775074
aF1265.6750536588065
aF1459.8687844894262
aF1638.1147267532065
aF1630.941128141996
aa(lp746
F677.6226602317498
aF638.5716851563006
aF660.0868614688131
aF795.6493310517097
aF841.7266123120665
aF1525.5928035365487
aF1056.7511319923556
aF1248.5816884314722
aF1536.1202876557145
aF1705.1429443576562
aF1672.8019093131588
aa(lp747
F720.2819640996307
aF690.2545247261538
aF684.5721369831682
aF890.1852706306784
aF889.3602379903506
aF1792.630603552244
aF1197.8340729254016
aF1430.5962289752204
aF1672.5222415184069
aF1876.9560223053033
aF1888.538523827678
aa(lp748
F714.7406681163143
aF695.7556356062171
aF714.3685197673716
aF869.9240399407903
aF911.1822040842327
aF1786.3499022152628
aF1178.9379781311013
aF1286.7476027907621
aF1556.354766454041
aF1792.4573342707813
aF1732.2384346467284
aa(lp749
F650.1336385690391
aF649.4140810688463
aF634.8080299744067
aF819.009008817494
aF856.6918799488033
aF1656.0625502883902
aF1102.737669048856
aF1337.4912695766998
aF1532.3001152494685
aF1753.5644018797848
aF1769.5513479739825
aa(lp750
F608.1262845355307
aF614.1710621698134
aF598.3489524979107
aF764.050097217356
aF780.0698006384279
aF1512.7974372238682
aF1001.804590555343
aF1228.5002694031077
aF1414.59381006159
aF1566.013943449473
aF1602.0149973616049
aa(lp751
F754.7656489184978
aF615.6665011940353
aF673.2533374503458
aF807.434426593808
aF807.8585158595783
aF1524.5672255885438
aF1071.8226001887442
aF1314.9319322439255
aF1513.401470075881
aF1834.4390001555093
aF1803.8332243808477
aa(lp752
F637.9060389869663
aF622.1914486447249
aF619.0140597249369
aF770.8762017124601
aF814.5945432019997
aF1570.120358145737
aF1049.1268954606703
aF1301.6628468817007
aF1475.408045735216
aF1723.0700962641858
aF1671.6337564312785
aa(lp753
F653.9627196969109
aF624.4509779993053
aF628.9960951945689
aF781.4277356953797
aF841.9347352665193
aF1637.363668326995
aF1083.1077406414813
aF1265.4746434523854
aF1515.9798674259657
aF1722.7889625178013
aF1622.8626538666865
aa(lp754
F650.3701398686777
aF602.603101342811
aF612.0125782581849
aF768.1674693180079
aF808.756260713252
aF1616.3439247078259
aF1066.1512487743564
aF1204.926238908059
aF1517.5899248775936
aF1683.6944065014236
aF1594.1997161025738
aa(lp755
F637.4703170400396
aF605.4848204865157
aF605.6984338707931
aF750.2122338649173
aF791.663334231486
aF1563.959866834928
aF1057.246676918977
aF1185.9919936922145
aF1426.0678385668914
aF1659.5108396028727
aF1588.6580275002382
aa(lp756
F624.3842163923757
aF596.1406826718041
aF609.2634360883827
aF739.2843137249945
aF778.2743080167029
aF1551.066453001695
aF998.2389623432706
aF1216.3796801973215
aF1421.4090743827592
aF1628.3213299325237
aF1555.3951570920735
aa(lp757
F638.1747234312987
aF609.4571182153406
aF628.9772242951418
aF780.8361017866039
aF783.8768116046243
aF1586.8622936826475
aF1049.9927527535026
aF1284.075527652349
aF1528.1758855578337
aF1705.5020643441612
aF1623.950500951286
aa(lp758
F631.3064548554681
aF610.4229359033286
aF606.2161120065833
aF753.3864565064323
aF769.743060400955
aF1560.2796939827713
aF1017.062217152328
aF1236.1351605151717
aF1455.9975994952572
aF1649.2266379879798
aF1606.7287855503187
aa(lp759
F661.2589152898972
aF660.4990728291802
aF655.5851128476817
aF805.3158003957839
aF836.6686522338301
aF1686.7061616778237
aF1072.9881082407323
aF1365.868457921751
aF1485.3044639696789
aF1722.7583356711189
aF1760.585438459968
aa(lp760
F613.9919322191826
aF592.6430716971034
aF598.9245186915036
aF740.6215812358845
aF777.7425429646003
aF1495.3836828730396
aF976.2837499425194
aF1223.4450851188549
aF1433.5386339326724
aF1577.529869832402
aF1570.6716832238653
aa(lp761
F702.5448185402207
aF692.5388751822398
aF687.0520101940399
aF847.1457912294923
aF891.75415766835
aF1708.6188479404186
aF1090.423086762915
aF1422.951921592855
aF1603.3490656794393
aF1793.6332656348136
aF1801.6503223363675
aa(lp762
F625.0257888883905
aF600.2060298255738
aF610.5108877621415
aF737.6448459580904
aF782.1843583896699
aF1540.0939679068647
aF1004.2473551578145
aF1255.1920599695588
aF1417.346877802519
aF1600.3610367313615
aF1613.7130383875563
aa(lp763
F619.1122993366242
aF598.6864886669933
aF616.3781558750399
aF746.8904129306956
aF783.8802917371702
aF1534.081658001952
aF986.629889469909
aF1237.6546437958718
aF1436.5789258336645
aF1640.763657714408
aF1624.0215646164274
aa(lp764
F661.6725797412973
aF602.937380681169
aF631.6870063621407
aF750.880711109621
aF790.2975725520564
aF1538.1924542936547
aF1053.0748570034268
aF1205.7117374319707
aF1510.9170039637277
aF1704.853403191876
aF1580.776277100844
aa(lp765
F608.5984982275953
aF578.860023157258
aF590.7649722193826
aF725.9715421033599
aF756.8672946434626
aF1510.767477537843
aF980.4887376359683
aF1091.4355902495984
aF1348.2012757052669
aF1494.3572952367508
aF1409.282881853016
aa(lp766
F626.9446172668027
aF587.6217885538305
aF604.0558900534122
aF727.3567507193894
aF766.7760676251803
aF1553.612304631789
aF999.5026857181983
aF1216.3488932791913
aF1448.057400146394
aF1635.0776339313325
aF1576.3405229897355
aa(lp767
F609.724251057851
aF566.1267344751152
aF595.0981883924422
aF711.8897470696609
aF740.2110320306216
aF1459.1417068597705
aF943.7410252665924
aF1168.2134991753442
aF1362.892161668764
aF1567.937829046098
aF1537.7902923699512
aa(lp768
F600.7988847574109
aF602.3241722611431
aF598.8179366776584
aF736.4595268387743
aF775.468966467088
aF1508.9544670269518
aF993.82259444667
aF1217.2875654905868
aF1385.9836366877216
aF1551.393904914022
aF1570.6849399562834
aa(lp769
F609.9387023217438
aF577.5057315697613
aF594.687407523786
aF712.8525932155695
aF749.6924014355952
aF1453.993717058118
aF953.0302244649577
aF1123.4331845649801
aF1319.802898593378
aF1497.511374722784
aF1485.3798495240385
aa(lp770
F600.4811664778393
aF589.9989754218344
aF590.4348971478483
aF732.6933894806522
aF759.7440365412288
aF1558.7350179356324
aF983.1249539648148
aF1136.0560805566279
aF1392.654404905834
aF1543.766488088653
aF1474.8880231989776
aasg7
(lp771
g50
ag53
ag56
ag59
ag62
ag65
ag68
ag71
ag74
ag77
ag80
ag83
ag86
ag89
ag92
ag95
ag98
ag101
ag104
ag107
ag110
ag113
ag116
ag119
ag122
ag125
ag128
asg13
(lp772
(lp773
F694.888305806
aF686.16782602
aF868.156896067
aF858.045104247
aF1041.72904647
aF1681.46459502
aF1115.8388144
aF1194.6527503
aF1341.48892303
aF1477.58391118
aF1460.84433813
aa(lp774
F685.308014199
aF676.650841587
aF856.254663335
aF846.217615353
aF1027.52612575
aF1658.79145196
aF1100.55877713
aF1178.42236703
aF1323.30363872
aF1457.68793404
aF1441.19973825
aa(lp775
F724.223816568
aF715.315938921
aF904.597445183
aF894.263915063
aF1085.2078999
aF1750.86454238
aF1162.62392764
aF1244.33507908
aF1397.15443909
aF1538.47492993
aF1520.96280415
aa(lp776
F743.269097659
aF734.244631098
aF928.251723347
aF917.779837998
aF1113.4265903
aF1795.90062253
aF1192.99552078
aF1276.57762786
aF1433.2793453
aF1577.98252448
aF1559.96660383
aa(lp777
F737.215456766
aF728.227623632
aF920.733397164
aF910.305019894
aF1104.45785322
aF1781.58727342
aF1183.34193174
aF1266.33017645
aF1421.79802817
aF1565.42681282
aF1547.57121451
aa(lp778
F688.171763942
aF679.495556964
aF859.812575253
aF849.753062529
aF1031.77187576
aF1665.56940249
aF1105.12636279
aF1183.2742516
aF1328.73993543
aF1463.63581386
aF1447.07252416
aa(lp779
F673.000399932
aF664.426115732
aF840.962884496
aF831.023583168
aF1009.27707456
aF1629.6569413
aF1080.92790262
aF1157.5674829
aF1299.93659349
aF1432.12005854
aF1415.95412658
aa(lp780
F681.503430096
aF672.871691943
aF851.527748393
aF841.520707831
aF1021.88524307
aF1649.78609004
aF1094.4905068
aF1171.97610304
aF1316.08089505
aF1449.78524072
aF1433.39674603
aa(lp781
F673.941272768
aF665.360589553
aF842.131935005
aF832.18509213
aF1010.6722636
aF1631.88444587
aF1082.42865012
aF1159.16192695
aF1301.72311358
aF1434.07495082
aF1417.88440995
aa(lp782
F689.128314157
aF680.445770371
aF861.000973344
aF850.933980231
aF1033.19000382
aF1667.83328415
aF1106.65201654
aF1184.89482486
aF1330.5557043
aF1465.6224196
aF1449.03403787
aa(lp783
F677.714527699
aF669.108286331
aF846.820186367
aF836.843214507
aF1016.26730573
aF1640.81711564
aF1088.44714976
aF1165.55597551
aF1308.88740835
aF1441.91426967
aF1425.62499278
aa(lp784
F666.441567926
aF657.912181296
aF832.813194785
aF822.926786715
aF999.550663865
aF1614.1276883
aF1070.46599894
aF1146.45183625
aF1287.48183906
aF1418.49098885
aF1402.49648087
aa(lp785
F654.387036172
aF645.941502207
aF817.833747879
aF808.046031483
aF981.671920339
aF1585.58025929
aF1051.23711925
aF1126.01874211
aF1264.58690822
aF1393.43503368
aF1377.75501366
aa(lp786
F666.441567926
aF657.912181296
aF832.813194785
aF822.926786715
aF999.550663865
aF1614.1276883
aF1070.46599894
aF1146.45183625
aF1287.48183906
aF1418.49098885
aF1402.49648087
aa(lp787
F663.645223431
aF655.135133761
aF829.338468295
aF819.474782775
aF995.403540555
aF1607.50612215
aF1066.00548954
aF1141.7122925
aF1282.17129147
aF1412.67945724
aF1396.75796884
aa(lp788
F671.121579576
aF662.560104673
aF838.628393636
aF828.704186455
aF1006.49097676
aF1625.20871856
aF1077.93105437
aF1154.38347021
aF1296.3690105
aF1428.21619121
aF1412.09938713
aa(lp789
F639.774319866
aF631.432789225
aF799.673493196
aF790.00802345
aF959.994530076
aF1550.9635351
aF1027.92593294
aF1101.24300705
aF1236.82564563
aF1363.04924962
aF1347.74945023
aa(lp790
F674.883121426
aF666.296042972
aF843.302189785
aF833.347809067
aF1012.06888045
aF1634.11421428
aF1083.93094771
aF1160.75799733
aF1303.51145409
aF1436.03181697
aF1419.81663719
aa(lp791
F637.96497955
aF629.636508645
aF797.424749247
aF787.774617961
aF957.310095791
aF1546.67643577
aF1025.03942286
aF1098.17478621
aF1233.38765867
aF1359.28591402
aF1344.03311583
aa(lp792
F637.96497955
aF629.636508645
aF797.424749247
aF787.774617961
aF957.310095791
aF1546.67643577
aF1025.03942286
aF1098.17478621
aF1233.38765867
aF1359.28591402
aF1344.03311583
aa(lp793
F659.004039957
aF650.526183922
aF823.571187797
aF813.745443649
aF988.520040645
aF1596.51515252
aF1058.60210409
aF1133.84536891
aF1273.35654899
aF1403.03279213
aF1387.23240833
aa(lp794
F634.35775019
aF626.055437006
aF792.941393904
aF783.321976593
aF951.957983238
aF1538.12878272
aF1019.28458331
aF1092.0574281
aF1226.53304118
aF1351.78240336
aF1336.62325878
aa(lp795
F642.495499733
aF634.134403725
aF803.055457168
aF793.367003241
aF964.031672019
aF1557.41080458
aF1032.26708094
aF1105.85728615
aF1241.99599706
aF1368.70875338
aF1353.33823362
aa(lp796
F622.739316795
aF614.52235813
aF778.500152213
aF768.980885758
aF934.71735119
aF1510.59243343
aF1000.74814354
aF1072.35110032
aF1204.45146682
aF1327.60848459
aF1312.7505189
aa(lp797
F650.710796922
aF642.29118304
aF813.265224961
aF803.507991654
aF976.218830796
aF1576.87261023
aF1045.37270568
aF1119.78637809
aF1257.60358265
aF1385.79194693
aF1370.20768656
aa(lp798
F621.852223492
aF613.641851604
aF777.397472908
aF767.88593065
aF933.400853763
aF1508.48962438
aF999.332791839
aF1070.84628179
aF1202.76525264
aF1325.7623665
aF1310.927367
aa(lp799
F629.870139273
aF621.600593744
aF787.363642426
aF777.782685793
aF945.299193972
aF1527.4938813
aF1012.12504895
aF1084.44643656
aF1218.00472724
aF1342.44634926
aF1327.40361964
aass(S'seirepi_real'
p800
I6630
I00
tp801
(dp802
g4
(lp803
(lp804
F654.8643482387395
aF644.1553463688754
aF1152.1442944034964
aF1082.256846298267
aF890.619917274641
aF1012.4030294721441
aF911.7271742190453
aF937.4457672833003
aF948.9529666844087
aF964.4752889728819
aF975.489087698769
aa(lp805
F624.2116283622473
aF614.4884701318751
aF792.0689038296932
aF764.7399743366599
aF903.0846459337222
aF1001.5490486016955
aF888.8417869815755
aF900.8021532420441
aF936.4355399811723
aF949.5876235587324
aF952.2388328886979
aa(lp806
F644.8891972381459
aF618.3781003683036
aF1087.9128437466702
aF960.0678732605979
aF909.7796833255768
aF1014.4981189616832
aF910.86734437631
aF933.2979299075313
aF954.3037492749678
aF932.2506848450115
aF973.9019480083155
aasg7
(lp807
g590
ag593
ag596
asg13
(lp808
(lp809
F695.851757757
aF687.124969586
aF869.353811663
aF859.234567476
aF1043.15727321
aF1683.74449568
aF1117.3754347
aF1196.28482718
aF1343.31756984
aF1479.58447947
aF1462.81960112
aa(lp810
F648.878453253
aF640.471819895
aF810.988091757
aF801.246119949
aF973.500737447
aF1572.53217883
aF1042.44967086
aF1116.67982187
aF1254.12269293
aF1381.98208589
aF1366.44552875
aa(lp811
F703.594988685
aF694.81788304
aF878.973089801
aF868.794374373
aF1054.63520025
aF1702.06637826
aF1129.7249941
aF1209.40080686
aF1358.01320381
aF1495.66108131
aF1478.69265812
aass(S'orig_spgr_mag'
p812
F11.0
I01
tp813
(dp814
g4
(lp815
(lp816
F738.3678252969846
aF756.2828768197858
aF911.3089995378627
aF915.2848338323724
aF1096.602654375178
aF1754.4698689326099
aF1171.47028657997
aF1236.1256820738122
aF1425.4662065975556
aF1475.0096238517995
aF1537.3681875133084
aa(lp817
F767.8215617466949
aF781.4858012513969
aF965.6312905806371
aF983.7286835779486
aF1175.7890043938453
aF1996.4912670474919
aF1300.823081624278
aF1307.452788794343
aF1504.9430955594155
aF1635.2560806197139
aF1654.9981472784991
aa(lp818
F801.3046090581672
aF819.7032254507633
aF1024.7537895170226
aF1005.0251060085751
aF1222.5183927074022
aF1910.6079995957411
aF1275.1073639481328
aF1389.168269673233
aF1546.846467506758
aF1683.7378495681567
aF1665.1773949228946
aa(lp819
F791.2117753300954
aF799.4161870213038
aF991.4596127065051
aF970.3771993080522
aF1181.664748988512
aF1841.5542232931643
aF1243.484300822659
aF1384.1679216072612
aF1548.4809016920772
aF1664.3473529611174
aF1692.835818327754
aa(lp820
F738.214340306512
aF745.9168067847658
aF931.968754427979
aF900.3590727825741
aF1098.3015522986673
aF1802.5751095489354
aF1159.8538939921746
aF1262.800657593216
aF1418.869948975379
aF1523.5424987888323
aF1544.203363952017
aa(lp821
F714.8981723858851
aF726.526268503239
aF894.1717451842553
aF850.7593144677147
aF1079.391011489561
aF1785.8860814937816
aF1162.3120653409198
aF1244.1349914966543
aF1399.0632839487905
aF1503.5460318325581
aF1522.1160463493568
aa(lp822
F740.2098902370432
aF740.4850056788422
aF909.5778206774211
aF895.2903413176697
aF1112.2322695210817
aF1779.0365078800235
aF1193.171830444472
aF1232.0390734867349
aF1409.4099846742922
aF1498.9217669382447
aF1522.8572521822603
aa(lp823
F739.4584914094581
aF748.0968085707806
aF917.2878861987757
aF902.9948549438509
aF1077.0752158657663
aF1717.7148684181614
aF1106.9036639569717
aF1253.9991773627557
aF1385.6910689186896
aF1500.5845863424895
aF1573.0282013756182
aa(lp824
F700.4606518839242
aF710.7347240783724
aF883.5982814181341
aF852.0039008998073
aF1038.8751365851263
aF1613.2137571116893
aF1049.1166956777772
aF1194.744339562035
aF1306.477077220558
aF1434.8709685243944
aF1471.922770380659
aa(lp825
F705.9807246047559
aF715.4039935495166
aF889.2932351755079
aF875.9888677681095
aF1063.1710366856898
aF1695.4067350563455
aF1073.469065539093
aF1229.6064252423807
aF1369.5234925537593
aF1446.3418002537237
aF1469.6967398351146
aa(lp826
F738.0863180547254
aF753.0233704035693
aF928.2075008388027
aF929.7805980678914
aF1131.0411148328546
aF1772.903430683347
aF1178.8207189486775
aF1246.9991560073972
aF1424.5723326915918
aF1542.3111635661587
aF1581.7068381990116
aa(lp827
F709.8574983204251
aF722.4976728681856
aF870.8717351863755
aF863.9738518184412
aF1093.811171430501
aF1678.2764267125947
aF1108.1526656621616
aF1169.783643697683
aF1308.962334815657
aF1445.4324474366454
aF1495.7973868695485
aa(lp828
F718.566105633563
aF730.7939163213168
aF879.61173184808
aF871.5310635302708
aF1103.7291980965733
aF1735.7892409160168
aF1115.2943474626477
aF1175.2264787734975
aF1360.87088614815
aF1445.9369782694314
aF1476.3149561786533
aa(lp829
F742.1834905996653
aF753.0251992931095
aF914.0009732342689
aF926.1292030898783
aF1143.1632766722012
aF1771.6214250134503
aF1179.5602586737537
aF1249.750234266889
aF1475.4448820163987
aF1541.0461989967812
aF1517.7258329334306
aa(lp830
F702.4455800195902
aF710.2162608902136
aF850.3369538389541
aF844.4761487702948
aF1056.3322251011448
aF1679.2356825961604
aF1107.4419200763111
aF1169.5691540728626
aF1315.0242861475367
aF1464.701549595009
aF1459.6604616795355
aa(lp831
F760.0669879780635
aF767.6732886766248
aF937.3479298183483
aF944.8934159987062
aF1145.041330856515
aF1873.5405641440345
aF1225.3170984973378
aF1266.3873344692224
aF1485.0483576377203
aF1605.703708468634
aF1570.7487303768066
aa(lp832
F680.260683669854
aF698.5444538127138
aF848.6464808968467
aF841.4052725640578
aF1030.1553502971428
aF1638.589598625136
aF1079.421145404431
aF1150.2836547864033
aF1330.8587511807386
aF1400.7500977122354
aF1393.5255057638308
aa(lp833
F701.914424571032
aF706.1422866318751
aF849.3560097334979
aF852.118990023803
aF1042.4901139253056
aF1697.0191321908342
aF1101.3625560610249
aF1149.4942378386831
aF1320.7313827590565
aF1425.9751207949596
aF1420.2784222736675
aa(lp834
F719.7207676421363
aF728.3564646604799
aF901.1094389811773
aF904.1141181036244
aF1092.9349236102148
aF1788.9939203075296
aF1107.3612710254706
aF1191.8243174454274
aF1338.4279500708865
aF1468.1166808635644
aF1489.3418999347418
aa(lp835
F678.1832851168042
aF679.162762070512
aF837.4867504152363
aF824.3683455520971
aF1026.030690260004
aF1575.1150725575212
aF1048.583050582388
aF1148.8323327512835
aF1276.9196738202133
aF1409.3772791670508
aF1446.8493938208092
aa(lp836
F701.695053257053
aF704.9921423154229
aF869.5473509800197
aF871.9273408282736
aF1064.2763060659397
aF1686.4908544456189
aF1106.6736782334924
aF1170.0160334477541
aF1330.247834774867
aF1447.5095948950755
aF1462.1726791861465
aa(lp837
F654.158926653012
aF667.1961354568004
aF805.1541365231094
aF816.2156055597994
aF998.361190350838
aF1607.4833862585974
aF1035.7914804867617
aF1097.8411232651515
aF1284.9626768255816
aF1396.6542312362324
aF1370.809441707953
aa(lp838
F718.6388867304375
aF724.3950980898284
aF885.9995694430635
aF890.4913298858753
aF1092.5550296860292
aF1783.0750862930515
aF1113.073146237791
aF1225.0565230974196
aF1397.6202561264101
aF1499.5813322136105
aF1496.5206149840328
aa(lp839
F674.4031257411436
aF681.1100354603565
aF838.2584827763504
aF834.4841006667858
aF1025.9588637981767
aF1653.1032322554724
aF1069.722883102575
aF1159.447102607723
aF1338.8972623088696
aF1438.6712310607652
aF1419.6957821162116
aa(lp840
F660.9584938754964
aF672.9769889309129
aF817.3024182443218
aF810.4686946736134
aF1013.25163228553
aF1505.60144365612
aF1033.2125158096453
aF1153.3940914214763
aF1280.1749447965392
aF1396.7960153839979
aF1445.0046271371234
aasg7
(lp841
g9
(S'\x07\xde\x06\x12'
p842
tp843
Rp844
ag9
(S'\x07\xde\x06\x1b'
p845
tp846
Rp847
ag9
(S'\x07\xde\x07\x03'
p848
tp849
Rp850
ag9
(S'\x07\xde\x07\x08'
p851
tp852
Rp853
ag9
(S'\x07\xde\x07\x12'
p854
tp855
Rp856
ag9
(S'\x07\xde\x07\x17'
p857
tp858
Rp859
ag9
(S'\x07\xde\x08\x01'
p860
tp861
Rp862
ag9
(S'\x07\xde\n\x17'
p863
tp864
Rp865
ag9
(S'\x07\xde\n\x1b'
p866
tp867
Rp868
ag9
(S'\x07\xde\x0c\n'
p869
tp870
Rp871
ag9
(S'\x07\xde\x0c\x11'
p872
tp873
Rp874
ag9
(S'\x07\xdf\x01\x07'
p875
tp876
Rp877
ag9
(S'\x07\xdf\x01\x14'
p878
tp879
Rp880
ag9
(S'\x07\xdf\x01\x1b'
p881
tp882
Rp883
ag9
(S'\x07\xdf\x02\x0b'
p884
tp885
Rp886
ag9
(S'\x07\xdf\x02\r'
p887
tp888
Rp889
ag9
(S'\x07\xdf\x02\x12'
p890
tp891
Rp892
ag9
(S'\x07\xdf\x02\x17'
p893
tp894
Rp895
ag9
(S'\x07\xdf\x02\x18'
p896
tp897
Rp898
ag9
(S'\x07\xdf\x02\x1b'
p899
tp900
Rp901
ag9
(S'\x07\xdf\x03\x02'
p902
tp903
Rp904
ag9
(S'\x07\xdf\x03\x03'
p905
tp906
Rp907
ag9
(S'\x07\xdf\x03\x04'
p908
tp909
Rp910
ag9
(S'\x07\xdf\x03\x05'
p911
tp912
Rp913
ag9
(S'\x07\xdf\x03\n'
p914
tp915
Rp916
asg13
(lp917
(lp918
F694.888305806
aF686.16782602
aF868.156896067
aF858.045104247
aF1041.72904647
aF1681.46459502
aF1115.8388144
aF1194.6527503
aF1341.48892303
aF1477.58391118
aF1460.84433813
aa(lp919
F724.223816568
aF715.315938921
aF904.597445183
aF894.263915063
aF1085.2078999
aF1750.86454238
aF1162.62392764
aF1244.33507908
aF1397.15443909
aF1538.47492993
aF1520.96280415
aa(lp920
F743.269097659
aF734.244631098
aF928.251723347
aF917.779837998
aF1113.4265903
aF1795.90062253
aF1192.99552078
aF1276.57762786
aF1433.2793453
aF1577.98252448
aF1559.96660383
aa(lp921
F737.215456766
aF728.227623632
aF920.733397164
aF910.305019894
aF1104.45785322
aF1781.58727342
aF1183.34193174
aF1266.33017645
aF1421.79802817
aF1565.42681282
aF1547.57121451
aa(lp922
F688.171763942
aF679.495556964
aF859.812575253
aF849.753062529
aF1031.77187576
aF1665.56940249
aF1105.12636279
aF1183.2742516
aF1328.73993543
aF1463.63581386
aF1447.07252416
aa(lp923
F673.000399932
aF664.426115732
aF840.962884496
aF831.023583168
aF1009.27707456
aF1629.6569413
aF1080.92790262
aF1157.5674829
aF1299.93659349
aF1432.12005854
aF1415.95412658
aa(lp924
F673.941272768
aF665.360589553
aF842.131935005
aF832.18509213
aF1010.6722636
aF1631.88444587
aF1082.42865012
aF1159.16192695
aF1301.72311358
aF1434.07495082
aF1417.88440995
aa(lp925
F689.128314157
aF680.445770371
aF861.000973344
aF850.933980231
aF1033.19000382
aF1667.83328415
aF1106.65201654
aF1184.89482486
aF1330.5557043
aF1465.6224196
aF1449.03403787
aa(lp926
F677.714527699
aF669.108286331
aF846.820186367
aF836.843214507
aF1016.26730573
aF1640.81711564
aF1088.44714976
aF1165.55597551
aF1308.88740835
aF1441.91426967
aF1425.62499278
aa(lp927
F666.441567926
aF657.912181296
aF832.813194785
aF822.926786715
aF999.550663865
aF1614.1276883
aF1070.46599894
aF1146.45183625
aF1287.48183906
aF1418.49098885
aF1402.49648087
aa(lp928
F654.387036172
aF645.941502207
aF817.833747879
aF808.046031483
aF981.671920339
aF1585.58025929
aF1051.23711925
aF1126.01874211
aF1264.58690822
aF1393.43503368
aF1377.75501366
aa(lp929
F666.441567926
aF657.912181296
aF832.813194785
aF822.926786715
aF999.550663865
aF1614.1276883
aF1070.46599894
aF1146.45183625
aF1287.48183906
aF1418.49098885
aF1402.49648087
aa(lp930
F663.645223431
aF655.135133761
aF829.338468295
aF819.474782775
aF995.403540555
aF1607.50612215
aF1066.00548954
aF1141.7122925
aF1282.17129147
aF1412.67945724
aF1396.75796884
aa(lp931
F671.121579576
aF662.560104673
aF838.628393636
aF828.704186455
aF1006.49097676
aF1625.20871856
aF1077.93105437
aF1154.38347021
aF1296.3690105
aF1428.21619121
aF1412.09938713
aa(lp932
F639.774319866
aF631.432789225
aF799.673493196
aF790.00802345
aF959.994530076
aF1550.9635351
aF1027.92593294
aF1101.24300705
aF1236.82564563
aF1363.04924962
aF1347.74945023
aa(lp933
F674.883121426
aF666.296042972
aF843.302189785
aF833.347809067
aF1012.06888045
aF1634.11421428
aF1083.93094771
aF1160.75799733
aF1303.51145409
aF1436.03181697
aF1419.81663719
aa(lp934
F637.96497955
aF629.636508645
aF797.424749247
aF787.774617961
aF957.310095791
aF1546.67643577
aF1025.03942286
aF1098.17478621
aF1233.38765867
aF1359.28591402
aF1344.03311583
aa(lp935
F637.96497955
aF629.636508645
aF797.424749247
aF787.774617961
aF957.310095791
aF1546.67643577
aF1025.03942286
aF1098.17478621
aF1233.38765867
aF1359.28591402
aF1344.03311583
aa(lp936
F659.004039957
aF650.526183922
aF823.571187797
aF813.745443649
aF988.520040645
aF1596.51515252
aF1058.60210409
aF1133.84536891
aF1273.35654899
aF1403.03279213
aF1387.23240833
aa(lp937
F634.35775019
aF626.055437006
aF792.941393904
aF783.321976593
aF951.957983238
aF1538.12878272
aF1019.28458331
aF1092.0574281
aF1226.53304118
aF1351.78240336
aF1336.62325878
aa(lp938
F642.495499733
aF634.134403725
aF803.055457168
aF793.367003241
aF964.031672019
aF1557.41080458
aF1032.26708094
aF1105.85728615
aF1241.99599706
aF1368.70875338
aF1353.33823362
aa(lp939
F622.739316795
aF614.52235813
aF778.500152213
aF768.980885758
aF934.71735119
aF1510.59243343
aF1000.74814354
aF1072.35110032
aF1204.45146682
aF1327.60848459
aF1312.7505189
aa(lp940
F650.710796922
aF642.29118304
aF813.265224961
aF803.507991654
aF976.218830796
aF1576.87261023
aF1045.37270568
aF1119.78637809
aF1257.60358265
aF1385.79194693
aF1370.20768656
aa(lp941
F621.852223492
aF613.641851604
aF777.397472908
aF767.88593065
aF933.400853763
aF1508.48962438
aF999.332791839
aF1070.84628179
aF1202.76525264
aF1325.7623665
aF1310.927367
aa(lp942
F629.870139273
aF621.600593744
aF787.363642426
aF777.782685793
aF945.299193972
aF1527.4938813
aF1012.12504895
aF1084.44643656
aF1218.00472724
aF1342.44634926
aF1327.40361964
aass.