(dp0
(S'orig_spgr_mag'
p1
F5.6
I00
tp2
(dp3
S'observed'
p4
(lp5
(lp6
F684.5766260663806
aF673.8726124429747
aF751.8236189544416
aF821.8849643469498
aF932.3087502145199
aF1608.7961779541088
aF1082.0023741841694
aF1194.9738710673541
aF1369.6073166036233
aF1522.6216152671818
aF1557.9044315719573
aF1776.9505730184455
aa(lp7
F669.0967489012554
aF653.4599830022704
aF722.4015717096548
aF793.6254210171766
aF902.3738696944747
aF1558.7948334356947
aF1049.1957675290507
aF1211.3344219997884
aF1374.4486829396449
aF1523.7131785103795
aF1527.8198519629734
aF1627.2624824538555
aa(lp8
F718.928153183258
aF693.613081169683
aF790.5259443128193
aF864.2784803560334
aF967.9575313213019
aF1656.8363559138254
aF1131.3443283451743
aF1240.5865185132272
aF1468.1055224082793
aF1603.2374882952915
aF1632.7300569705988
aF1854.2282408594217
aa(lp9
F757.0614859577419
aF738.9493555879266
aF827.8546476725426
aF919.0163727953762
aF1020.0288696563583
aF1779.3121355509168
aF1190.6982630491284
aF1379.439659644896
aF1561.7607967528452
aF1737.2073862051511
aF1749.1867909243608
aF455.9248618574892
aa(lp10
F742.7579270105966
aF727.4686638632855
aF829.1410930190389
aF896.0902702283381
aF1020.3241782574271
aF1750.4529793321465
aF1178.965640599915
aF1311.071965648363
aF1509.7671352143575
aF1687.8443281974833
aF1689.7592096277326
aF1950.374849401563
aa(lp11
F689.7437219620798
aF681.9154774445906
aF756.786398505687
aF838.0885603818703
aF947.2079245721196
aF1648.5781474772953
aF1098.7150503808905
aF1269.021536597159
aF1433.028423863359
aF1573.9371716318683
aF1618.4016130253879
aF1822.2280967155968
aa(lp12
F653.9859276779716
aF655.9370543068164
aF717.427458776805
aF784.9944049828316
aF896.4961226504876
aF1577.653560093308
aF1034.4507895667043
aF1200.8355448734349
aF1362.800860213434
aF1484.6781326783832
aF1517.667924585036
aF1744.3499557335763
aa(lp13
F714.2163212818026
aF669.48456396061
aF763.2272739631345
aF817.3081385563584
aF946.01672158421
aF1506.1727601186365
aF1057.9930719027684
aF1237.535190108878
aF1403.3988104533976
aF1598.0747495044743
aF1571.4842650000808
aF1905.7187854195854
aa(lp14
F680.8661620575874
aF661.6791620230356
aF737.8798578507799
aF806.1247079872036
aF923.9514452969464
aF1592.2903942738633
aF1064.7177065223082
aF1225.7647287745185
aF1377.5717892162922
aF1538.2766746390805
aF1555.0684257198106
aF1118.026405947897
aa(lp15
F689.2942069388191
aF666.5539987410531
aF746.8849499168572
aF813.2984633910316
aF932.6290293982779
aF1611.760343559038
aF1067.3488375571687
aF1233.0950995954136
aF1410.9904372277304
aF1562.611002166965
aF1556.8365732995267
aF1801.2792536492175
aa(lp16
F666.145811136293
aF638.507686393813
aF720.606528079277
aF786.6973822509372
aF890.1659997655447
aF1558.6183520018656
aF1021.0366611160023
aF1165.0954936806413
aF1386.7788432107207
aF1508.9491204872752
aF1501.567086956239
aF1733.8534294865349
aa(lp17
F666.605910294284
aF643.7331539966247
aF724.1370807225438
aF790.3253435699394
aF893.3526214886602
aF1569.1878075444981
aF1031.874622341361
aF1174.6711308552892
aF1363.0051726314832
aF1494.2261210002853
aF1496.9061554750294
aF1725.3093222270968
aa(lp18
F657.5743166307508
aF640.0047950923424
aF723.1302269352833
aF782.7362075677137
aF895.4295494553497
aF1547.533565692539
aF1013.5819469449677
aF1171.9545492850175
aF1337.4174749143124
aF1495.6786544994218
aF1495.2130432064882
aF1739.0637100639617
aa(lp19
F672.1555836122036
aF648.2561002642823
aF734.5004429783803
aF811.420850199995
aF906.7500850444868
aF1573.7809148362148
aF1048.6254024171985
aF1202.5644240461004
aF1369.457265050112
aF1521.060474405672
aF1523.1523280592583
aF1783.36909480973
aa(lp20
F672.2650740453616
aF652.7028344808083
aF723.4363550362808
aF789.9478146780561
aF901.3010342580171
aF1590.056462570761
aF1026.0332626191657
aF1184.2321341304323
aF1365.482610578296
aF1496.174137287264
aF1518.9967874322115
aF1710.3664440079765
aa(lp21
F695.6955842981943
aF691.2275537979422
aF762.7763844497439
aF840.7559402961609
aF954.7653340041504
aF1671.4181434512325
aF1084.6255319952788
aF1278.9141970487872
aF1427.9500256687193
aF1584.012370830166
aF1603.3129857065753
aF1146.9504983164868
aa(lp22
F657.328733500152
aF640.9472949339253
aF708.0646286707237
aF776.1322153844283
aF888.401546447614
aF1513.8100036763458
aF1002.8139817729822
aF1171.1660297285498
aF1331.3212369547546
aF1472.0423960025523
aF1483.0878846172968
aF1715.64270835888
aa(lp23
F721.2823807735821
aF709.1704161953367
aF785.9135152538713
aF866.9746310393091
aF985.033014992187
aF1701.762237465393
aF1103.5984349034047
aF1306.4725349151279
aF1492.2134121347392
aF1638.2051806195682
aF1637.3949184791245
aF1175.6948328590065
aa(lp24
F651.8092757766801
aF631.4372630461133
aF707.4553956866708
aF767.0430061314024
aF877.724781887055
aF1512.6628636774708
aF1000.4829466562885
aF1167.8903415915502
aF1334.075911525551
aF1446.5325020821745
aF1471.9029025601874
aF1706.7433858109027
aa(lp25
F647.90828398159
aF634.9742519259722
aF707.7078712304315
aF772.6625809260462
aF878.7615706712141
aF1528.6977816548845
aF1001.1823772772993
aF1155.4558532992858
aF1332.947801650425
aF1481.80269710673
aF1474.3711183591238
aF1404.089238988484
aa(lp26
F691.5331482392911
aF649.0909108807506
aF737.0471423207027
aF799.7540709242569
aF907.2947946403607
aF1587.758926842025
aF1054.0062055030503
aF1168.3446306310007
aF1385.2697703111605
aF1532.674171222464
aF1507.6971325665343
aF1781.958180353819
aa(lp27
F633.9156369147161
aF608.4354948178774
aF689.8880606777974
aF748.1680719818573
aF857.4310810292019
aF1476.278545507817
aF964.5652981847571
aF1077.287622643745
aF1272.1954548382014
aF1409.0606569809759
aF1382.667468718703
aF1600.6478339234031
aa(lp28
F660.3193546456314
aF631.0472482209541
aF708.3598567352253
aF774.2299669181841
aF879.8610471014542
aF1532.8073897379813
aF1008.7900460061628
aF1155.5369904966942
aF1340.5032969693962
aF1469.6725251307614
aF1473.0895411240658
aF1659.975563797984
aa(lp29
F631.4288587101429
aF604.0546657425233
aF688.1111407437572
aF740.3267188580575
aF839.7686387445146
aF1452.6389644882054
aF955.3490692605527
aF1104.0815259864676
aF1273.6856555016006
aF1431.5478117141097
aF1421.6851643849845
aF1660.1353406768635
aa(lp30
F662.0545848096903
aF655.0539024422038
aF725.6503183872138
aF798.3906594025708
aF909.4213830685424
aF1598.9152283693215
aF1032.9419622891724
aF1200.9873567984919
aF1367.1849405033884
aF1490.3023154359284
aF1509.7619038209261
aF1700.5703290781098
aa(lp31
F640.9291146970556
aF614.1002303605425
aF695.6429287254012
aF746.7913977766096
aF857.6193576248984
aF1485.8561021020132
aF965.7661461560507
aF1111.4847392902564
aF1283.1147650200062
aF1424.8895842205136
aF1418.962968364257
aF1650.4071372730753
aa(lp32
F627.4291423174047
aF613.4754659448956
aF681.254966623953
aF742.9905378031017
aF856.6423724219559
aF1452.0622523638929
aF963.7926536292548
aF1114.0050626016969
aF1280.8146545107668
aF1416.1865959635531
aF1405.188025758736
aF1650.6106101923338
aasS'dates'
p33
(lp34
cdatetime
date
p35
(S'\x07\xde\x06\x12'
p36
tp37
Rp38
ag35
(S'\x07\xde\x06\x14'
p39
tp40
Rp41
ag35
(S'\x07\xde\x06\x1b'
p42
tp43
Rp44
ag35
(S'\x07\xde\x07\x03'
p45
tp46
Rp47
ag35
(S'\x07\xde\x07\x08'
p48
tp49
Rp50
ag35
(S'\x07\xde\x07\x12'
p51
tp52
Rp53
ag35
(S'\x07\xde\x07\x17'
p54
tp55
Rp56
ag35
(S'\x07\xde\x07\x1c'
p57
tp58
Rp59
ag35
(S'\x07\xde\x08\x01'
p60
tp61
Rp62
ag35
(S'\x07\xde\n\x17'
p63
tp64
Rp65
ag35
(S'\x07\xde\n\x1b'
p66
tp67
Rp68
ag35
(S'\x07\xde\x0c\n'
p69
tp70
Rp71
ag35
(S'\x07\xde\x0c\x11'
p72
tp73
Rp74
ag35
(S'\x07\xdf\x01\x07'
p75
tp76
Rp77
ag35
(S'\x07\xdf\x01\x14'
p78
tp79
Rp80
ag35
(S'\x07\xdf\x01\x1b'
p81
tp82
Rp83
ag35
(S'\x07\xdf\x02\x0b'
p84
tp85
Rp86
ag35
(S'\x07\xdf\x02\r'
p87
tp88
Rp89
ag35
(S'\x07\xdf\x02\x12'
p90
tp91
Rp92
ag35
(S'\x07\xdf\x02\x17'
p93
tp94
Rp95
ag35
(S'\x07\xdf\x02\x18'
p96
tp97
Rp98
ag35
(S'\x07\xdf\x02\x1b'
p99
tp100
Rp101
ag35
(S'\x07\xdf\x03\x02'
p102
tp103
Rp104
ag35
(S'\x07\xdf\x03\x03'
p105
tp106
Rp107
ag35
(S'\x07\xdf\x03\x04'
p108
tp109
Rp110
ag35
(S'\x07\xdf\x03\x05'
p111
tp112
Rp113
ag35
(S'\x07\xdf\x03\n'
p114
tp115
Rp116
asS'model'
p117
(lp118
(lp119
F694.888305806
aF686.16782602
aF868.156896067
aF858.045104247
aF1041.72904647
aF1681.46459502
aF1115.8388144
aF1194.6527503
aF1341.48892303
aF1477.58391118
aF1460.84433813
aF1639.88164576
aa(lp120
F685.308014199
aF676.650841587
aF856.254663335
aF846.217615353
aF1027.52612575
aF1658.79145196
aF1100.55877713
aF1178.42236703
aF1323.30363872
aF1457.68793404
aF1441.19973825
aF1618.03484218
aa(lp121
F724.223816568
aF715.315938921
aF904.597445183
aF894.263915063
aF1085.2078999
aF1750.86454238
aF1162.62392764
aF1244.33507908
aF1397.15443909
aF1538.47492993
aF1520.96280415
aF1706.72301217
aa(lp122
F743.269097659
aF734.244631098
aF928.251723347
aF917.779837998
aF1113.4265903
aF1795.90062253
aF1192.99552078
aF1276.57762786
aF1433.2793453
aF1577.98252448
aF1559.96660383
aF1750.07575045
aa(lp123
F737.215456766
aF728.227623632
aF920.733397164
aF910.305019894
aF1104.45785322
aF1781.58727342
aF1183.34193174
aF1266.33017645
aF1421.79802817
aF1565.42681282
aF1547.57121451
aF1736.29932557
aa(lp124
F688.171763942
aF679.495556964
aF859.812575253
aF849.753062529
aF1031.77187576
aF1665.56940249
aF1105.12636279
aF1183.2742516
aF1328.73993543
aF1463.63581386
aF1447.07252416
aF1624.56626655
aa(lp125
F673.000399932
aF664.426115732
aF840.962884496
aF831.023583168
aF1009.27707456
aF1629.6569413
aF1080.92790262
aF1157.5674829
aF1299.93659349
aF1432.12005854
aF1415.95412658
aF1589.95508825
aa(lp126
F681.503430096
aF672.871691943
aF851.527748393
aF841.520707831
aF1021.88524307
aF1649.78609004
aF1094.4905068
aF1171.97610304
aF1316.08089505
aF1449.78524072
aF1433.39674603
aF1609.35635598
aa(lp127
F673.941272768
aF665.360589553
aF842.131935005
aF832.18509213
aF1010.6722636
aF1631.88444587
aF1082.42865012
aF1159.16192695
aF1301.72311358
aF1434.07495082
aF1417.88440995
aF1592.10223402
aa(lp128
F689.128314157
aF680.445770371
aF861.000973344
aF850.933980231
aF1033.19000382
aF1667.83328415
aF1106.65201654
aF1184.89482486
aF1330.5557043
aF1465.6224196
aF1449.03403787
aF1626.7477113
aa(lp129
F677.714527699
aF669.108286331
aF846.820186367
aF836.843214507
aF1016.26730573
aF1640.81711564
aF1088.44714976
aF1165.55597551
aF1308.88740835
aF1441.91426967
aF1425.62499278
aF1600.71217814
aa(lp130
F666.441567926
aF657.912181296
aF832.813194785
aF822.926786715
aF999.550663865
aF1614.1276883
aF1070.46599894
aF1146.45183625
aF1287.48183906
aF1418.49098885
aF1402.49648087
aF1574.98474783
aa(lp131
F654.387036172
aF645.941502207
aF817.833747879
aF808.046031483
aF981.671920339
aF1585.58025929
aF1051.23711925
aF1126.01874211
aF1264.58690822
aF1393.43503368
aF1377.75501366
aF1547.45870647
aa(lp132
F666.441567926
aF657.912181296
aF832.813194785
aF822.926786715
aF999.550663865
aF1614.1276883
aF1070.46599894
aF1146.45183625
aF1287.48183906
aF1418.49098885
aF1402.49648087
aF1574.98474783
aa(lp133
F663.645223431
aF655.135133761
aF829.338468295
aF819.474782775
aF995.403540555
aF1607.50612215
aF1066.00548954
aF1141.7122925
aF1282.17129147
aF1412.67945724
aF1396.75796884
aF1568.60079467
aa(lp134
F671.121579576
aF662.560104673
aF838.628393636
aF828.704186455
aF1006.49097676
aF1625.20871856
aF1077.93105437
aF1154.38347021
aF1296.3690105
aF1428.21619121
aF1412.09938713
aF1585.66719684
aa(lp135
F639.774319866
aF631.432789225
aF799.673493196
aF790.00802345
aF959.994530076
aF1550.9635351
aF1027.92593294
aF1101.24300705
aF1236.82564563
aF1363.04924962
aF1347.74945023
aF1514.06981932
aa(lp136
F674.883121426
aF666.296042972
aF843.302189785
aF833.347809067
aF1012.06888045
aF1634.11421428
aF1083.93094771
aF1160.75799733
aF1303.51145409
aF1436.03181697
aF1419.81663719
aF1594.25151473
aa(lp137
F637.96497955
aF629.636508645
aF797.424749247
aF787.774617961
aF957.310095791
aF1546.67643577
aF1025.03942286
aF1098.17478621
aF1233.38765867
aF1359.28591402
aF1344.03311583
aF1509.93395358
aa(lp138
F637.96497955
aF629.636508645
aF797.424749247
aF787.774617961
aF957.310095791
aF1546.67643577
aF1025.03942286
aF1098.17478621
aF1233.38765867
aF1359.28591402
aF1344.03311583
aF1509.93395358
aa(lp139
F659.004039957
aF650.526183922
aF823.571187797
aF813.745443649
aF988.520040645
aF1596.51515252
aF1058.60210409
aF1133.84536891
aF1273.35654899
aF1403.03279213
aF1387.23240833
aF1558.00329823
aa(lp140
F634.35775019
aF626.055437006
aF792.941393904
aF783.321976593
aF951.957983238
aF1538.12878272
aF1019.28458331
aF1092.0574281
aF1226.53304118
aF1351.78240336
aF1336.62325878
aF1501.6872816
aa(lp141
F642.495499733
aF634.134403725
aF803.055457168
aF793.367003241
aF964.031672019
aF1557.41080458
aF1032.26708094
aF1105.85728615
aF1241.99599706
aF1368.70875338
aF1353.33823362
aF1520.28930672
aa(lp142
F622.739316795
aF614.52235813
aF778.500152213
aF768.980885758
aF934.71735119
aF1510.59243343
aF1000.74814354
aF1072.35110032
aF1204.45146682
aF1327.60848459
aF1312.7505189
aF1475.11552536
aa(lp143
F650.710796922
aF642.29118304
aF813.265224961
aF803.507991654
aF976.218830796
aF1576.87261023
aF1045.37270568
aF1119.78637809
aF1257.60358265
aF1385.79194693
aF1370.20768656
aF1539.06102569
aa(lp144
F621.852223492
aF613.641851604
aF777.397472908
aF767.88593065
aF933.400853763
aF1508.48962438
aF999.332791839
aF1070.84628179
aF1202.76525264
aF1325.7623665
aF1310.927367
aF1473.08605988
aa(lp145
F629.870139273
aF621.600593744
aF787.363642426
aF777.782685793
aF945.299193972
aF1527.4938813
aF1012.12504895
aF1084.44643656
aF1218.00472724
aF1342.44634926
aF1327.40361964
aF1491.42583056
aass(S'seirepi_real'
p146
I6630
I01
tp147
(dp148
g4
(lp149
(lp150
F626.6095895812603
aF608.2662045937599
aF992.8789839187328
aF1027.98416068231
aF798.8781515628592
aF973.6309347990504
aF896.6642925021641
aF963.1609443463948
aF1025.5388565314568
aF1083.229513859335
aF1027.885830577583
aF1113.15478549078
aa(lp151
F591.4775542408807
aF582.239351000379
aF667.2233914412537
aF740.5725254973904
aF796.8583451739722
aF1026.2254556356445
aF886.3350292791292
aF981.0508151517591
aF1032.3582471439875
aF1081.6778743117288
aF1036.0252206824166
aF1138.91633180059
aa(lp152
F619.359901444958
aF581.9047826066516
aF955.0243821687234
aF940.1500946619286
aF838.2024933470403
aF1067.3788503026385
aF949.8602096789145
aF971.9313415140481
aF1080.7545717855558
aF1059.6743994004196
aF1043.5889199238613
aF1072.0392799136894
aasg33
(lp153
g35
(S'\x07\xdf\x05\x0b'
p154
tp155
Rp156
ag35
(S'\x07\xdf\x05\x0c'
p157
tp158
Rp159
ag35
(S'\x07\xdf\x05\x14'
p160
tp161
Rp162
asg117
(lp163
(lp164
F695.851757757
aF687.124969586
aF869.353811663
aF859.234567476
aF1043.15727321
aF1683.74449568
aF1117.3754347
aF1196.28482718
aF1343.31756984
aF1479.58447947
aF1462.81960112
aF1642.07819
aa(lp165
F648.878453253
aF640.471819895
aF810.988091757
aF801.246119949
aF973.500737447
aF1572.53217883
aF1042.44967086
aF1116.67982187
aF1254.12269293
aF1381.98208589
aF1366.44552875
aF1534.87482363
aa(lp166
F703.594988685
aF694.81788304
aF878.973089801
aF868.794374373
aF1054.63520025
aF1702.06637826
aF1129.7249941
aF1209.40080686
aF1358.01320381
aF1495.66108131
aF1478.69265812
aF1659.72846287
aass(S'seirepi_real'
p167
I6630
I00
tp168
(dp169
g4
(lp170
(lp171
F654.8643482387395
aF644.1553463688754
aF1152.1442944034964
aF1082.256846298267
aF890.619917274641
aF1012.4030294721441
aF911.7271742190453
aF937.4457672833003
aF948.9529666844087
aF964.4752889728819
aF975.489087698769
aF994.9277027135821
aa(lp172
F624.2116283622473
aF614.4884701318751
aF792.0689038296932
aF764.7399743366599
aF903.0846459337222
aF1001.5490486016955
aF888.8417869815755
aF900.8021532420441
aF936.4355399811723
aF949.5876235587324
aF952.2388328886979
aF976.5615617393896
aa(lp173
F644.8891972381459
aF618.3781003683036
aF1087.9128437466702
aF960.0678732605979
aF909.7796833255768
aF1014.4981189616832
aF910.86734437631
aF933.2979299075313
aF954.3037492749678
aF932.2506848450115
aF973.9019480083155
aF947.9299710233175
aasg33
(lp174
g156
ag159
ag162
asg117
(lp175
(lp176
F695.851757757
aF687.124969586
aF869.353811663
aF859.234567476
aF1043.15727321
aF1683.74449568
aF1117.3754347
aF1196.28482718
aF1343.31756984
aF1479.58447947
aF1462.81960112
aF1642.07819
aa(lp177
F648.878453253
aF640.471819895
aF810.988091757
aF801.246119949
aF973.500737447
aF1572.53217883
aF1042.44967086
aF1116.67982187
aF1254.12269293
aF1381.98208589
aF1366.44552875
aF1534.87482363
aa(lp178
F703.594988685
aF694.81788304
aF878.973089801
aF868.794374373
aF1054.63520025
aF1702.06637826
aF1129.7249941
aF1209.40080686
aF1358.01320381
aF1495.66108131
aF1478.69265812
aF1659.72846287
aass(S'orig_spgr_mag'
p179
F11.0
I01
tp180
(dp181
g4
(lp182
(lp183
F16.009248971428573
aF0.39999999999999997
aF622.4632655028513
aF566.4362575072996
aF1074.11570831278
aF948.4471789507816
aF1412.506859208197
aF448.37649984418215
aF1330.4541926903157
aF953.732263206504
aF829.0263925179175
aF1900.7764850522688
aa(lp184
F681.4327604244087
aF682.6037942100869
aF677.9647563708
aF867.1470460165734
aF891.0847535674371
aF1732.8827214919384
aF1167.7471151242673
aF1328.3680389997207
aF1611.7024162359642
aF1864.5877081940528
aF1786.8707031907218
aF2144.6209290618217
aa(lp185
F677.5457729743717
aF665.5286224987279
aF672.5038893223588
aF830.3540098686115
aF885.6995267952434
aF1697.4639665569416
aF1126.7700273722085
aF1326.9278055679943
aF1639.2632585214285
aF1840.1370636476327
aF1734.0337673641488
aF2144.1465724545083
aa(lp186
F718.4953568319506
aF720.0514805470337
aF697.5724230533867
aF941.6003209294573
aF927.2088515144749
aF1941.712090357987
aF1288.9908858701208
aF1491.8788567013953
aF1777.580909700793
aF1959.4132603505548
aF1940.9546284534747
aF846.4644784162132
aa(lp187
F737.6821578063508
aF725.9912814520528
aF737.3689637470234
aF915.5446709850667
aF940.6707252128439
aF1918.6193166613427
aF1248.3436288485095
aF1337.873853977152
aF1645.4151735453559
aF1878.1054933714215
aF1777.5825748610098
aF2151.011412031879
aa(lp188
F659.1672676842117
aF672.119370579659
aF658.9562400952111
aF854.0995717391968
aF891.3259058198688
aF1810.4729763603016
aF1167.997878200065
aF1406.215133533698
aF1600.8238098343809
aF1882.5718434485143
aF1839.5354563160788
aF2083.0784342423813
aa(lp189
F617.6078475054735
aF636.5044746184743
aF620.7297548487788
aF805.6940445270992
aF816.12720278086
aF1641.4100854656847
aF1089.715119365622
aF1302.3853101074335
aF1507.36736036753
aF1673.317826230946
aF1696.6093489371817
aF2011.9793671601306
aa(lp190
F653.7155456438619
aF647.6820256753497
aF644.9180985200882
aF821.9053386330769
aF851.2495086989475
aF1725.5278747041357
aF1148.9120772191654
aF1389.6490718847772
aF1611.6229066859148
aF1876.0214365940756
aF1761.9093131221834
aF1040.2663106714497
aa(lp191
F665.1426252815737
aF656.0160751336723
aF649.4263544654108
aF833.18817507658
aF876.8675556811709
aF1772.9192607410587
aF1139.941067545557
aF1320.9844969688784
aF1599.5902352103762
aF1825.101729367196
aF1709.5499669316137
aF2093.0593826950912
aa(lp192
F667.7450352002728
aF631.1781738636336
aF639.6768564375185
aF811.7120867296128
aF852.3892792482487
aF1736.630788873677
aF1148.0038012459593
aF1276.3650102054703
aF1564.2523537517131
aF1784.9340498021702
aF1660.9508294630946
aF2019.5352112499754
aa(lp193
F639.4573933944297
aF635.7783250829305
aF617.1984905307008
aF790.4104749029182
aF830.8340228847036
aF1684.6585160108207
aF1129.836286202535
aF1257.3587036257056
aF1506.2801929952543
aF1774.1084105247921
aF1658.910152448272
aF2088.631645959291
aa(lp194
F663.3279861704248
aF655.8711639397862
aF662.0778155825781
aF834.848512488528
aF844.6387439997482
aF1780.7674713024103
aF1126.560199368705
aF1349.4672162786844
aF1613.639383200946
aF1816.9035365520347
aF1724.1334883885809
aF2094.584411157368
aa(lp195
F636.5393663654834
aF642.5448285214013
aF634.1334013022863
aF799.9178903663818
aF812.2208955361947
aF1707.4250689970524
aF1111.5133283911794
aF1333.4423774608085
aF1631.9897502230422
aF1795.0905930426247
aF1705.0219011721292
aF2034.62716331996
aa(lp196
F646.0740152677107
aF631.0719479439502
aF635.8752359188431
aF796.6765372832721
aF792.2765445816029
aF1686.75814694301
aF1091.2476479903917
aF1293.2922095007652
aF1545.918199814059
aF1732.8516334861663
aF1679.4816927308511
aF1897.995420776932
aa(lp197
F671.5328248796956
aF687.0490600092492
aF675.5606827328673
aF850.1092787569378
aF872.6485974588667
aF1803.0650524476243
aF1153.794890475732
aF1422.6806924698176
aF1596.4496292594895
aF1823.0583670215547
aF1822.3518049609038
aF1347.367556820444
aa(lp198
F608.6995298513635
aF610.2401631115454
aF608.3111838062197
aF768.0437999819812
aF807.090391325537
aF1639.28806307068
aF1050.5251847643474
aF1274.4748507133024
aF1524.695522591018
aF1667.6966615260387
aF1632.4071444216218
aF1941.2882125762617
aa(lp199
F720.8388388066041
aF731.937908061808
aF715.2624958664305
aF901.942000103986
aF937.4182639573415
aF1888.2129039507274
aF1195.991990989329
aF1503.3765618250084
aF1715.5203136378802
aF1925.7948245274142
aF1903.0006207731099
aF1424.4497976448365
aa(lp200
F625.4172361464134
aF632.1073100600428
aF630.4076343923223
aF779.7433572132558
aF813.3417193653025
aF1688.9543323946634
aF1078.643172648197
aF1329.724489671716
aF1504.2477801663256
aF1701.3368215953449
aF1692.9833344604858
aF2060.735065576798
aa(lp201
F637.5102871762809
aF630.9708839302901
aF640.2213555729859
aF795.205231331891
aF831.0697360029126
aF1712.5442257414966
aF1068.5066047148753
aF1319.1673320141315
aF1533.4503069100597
aF1736.2089373892666
aF1718.3932222211974
aF1834.7825659102596
aa(lp202
F662.5587310294908
aF633.136546591008
aF660.8357155859558
aF798.9597397629047
aF827.0680044039123
aF1672.3188265629367
aF1109.0672333418856
aF1263.7644060284388
aF1576.522612073076
aF1804.6690594740885
aF1650.8273839785327
aF2002.0078764203681
aa(lp203
F622.4428979859545
aF618.96869097652
aF613.192580091196
aF775.923241849703
aF798.9634774462191
aF1646.5484325346306
aF1083.201979220707
aF1175.1386492721842
aF1434.0160159515278
aF1583.0063292070977
aF1504.3795719700452
aF1804.1602455588072
aa(lp204
F632.1301240404524
aF610.6940204512157
aF631.1849105145543
aF769.0010265246952
aF806.9476203083741
aF1732.653444734614
aF1086.2099501253401
aF1296.8020091981875
aF1552.7888044609497
aF1792.9709867821869
aF1675.1260178869923
aF1927.9261800799106
aa(lp205
F613.9357062543793
aF583.1564135778829
aF608.3194810307737
aF753.7418963091004
aF768.0179694241758
aF1621.2649326399044
aF1008.7850729913143
aF1237.443042468447
aF1478.9748830980855
aF1666.9643933602765
aF1607.8441149949683
aF1913.1256366338887
aa(lp206
F591.1153781761587
aF611.7857990434148
aF602.0834414808934
aF757.101744528623
aF793.1290897594338
aF1587.368027076908
aF1029.8710395372075
aF1258.6629019765041
aF1435.8943276510884
aF1625.2686808198478
aF1620.1274473299695
aF1912.765076504348
aa(lp207
F613.365445976424
aF597.0493922614252
aF613.5607153503789
aF760.3214073946465
aF781.671146725069
aF1583.0195246520884
aF1043.2029411404408
aF1180.8104888943997
aF1415.8304207122035
aF1596.7021711038917
aF1559.367474669804
aF1851.5108565218727
aa(lp208
F605.0504285838715
aF622.1744940015722
aF612.7919163055487
aF788.0001694765303
aF795.9672930435227
aF1735.8229416947995
aF1075.2521287994703
aF1199.7101148499924
aF1512.6327817047759
aF1661.1103802829834
aF1592.3429412856735
aF1935.689776001729
aasg33
(lp209
g35
(S'\x07\xde\x05\x0f'
p210
tp211
Rp212
ag35
(S'\x07\xde\x06\x12'
p213
tp214
Rp215
ag35
(S'\x07\xde\x06\x1b'
p216
tp217
Rp218
ag35
(S'\x07\xde\x07\x03'
p219
tp220
Rp221
ag35
(S'\x07\xde\x07\x08'
p222
tp223
Rp224
ag35
(S'\x07\xde\x07\x12'
p225
tp226
Rp227
ag35
(S'\x07\xde\x07\x17'
p228
tp229
Rp230
ag35
(S'\x07\xde\x08\x01'
p231
tp232
Rp233
ag35
(S'\x07\xde\n\x17'
p234
tp235
Rp236
ag35
(S'\x07\xde\n\x1b'
p237
tp238
Rp239
ag35
(S'\x07\xde\x0c\n'
p240
tp241
Rp242
ag35
(S'\x07\xde\x0c\x11'
p243
tp244
Rp245
ag35
(S'\x07\xdf\x01\x07'
p246
tp247
Rp248
ag35
(S'\x07\xdf\x01\x14'
p249
tp250
Rp251
ag35
(S'\x07\xdf\x01\x1b'
p252
tp253
Rp254
ag35
(S'\x07\xdf\x02\x0b'
p255
tp256
Rp257
ag35
(S'\x07\xdf\x02\r'
p258
tp259
Rp260
ag35
(S'\x07\xdf\x02\x12'
p261
tp262
Rp263
ag35
(S'\x07\xdf\x02\x17'
p264
tp265
Rp266
ag35
(S'\x07\xdf\x02\x18'
p267
tp268
Rp269
ag35
(S'\x07\xdf\x02\x1b'
p270
tp271
Rp272
ag35
(S'\x07\xdf\x03\x02'
p273
tp274
Rp275
ag35
(S'\x07\xdf\x03\x03'
p276
tp277
Rp278
ag35
(S'\x07\xdf\x03\x04'
p279
tp280
Rp281
ag35
(S'\x07\xdf\x03\x05'
p282
tp283
Rp284
ag35
(S'\x07\xdf\x03\n'
p285
tp286
Rp287
asg117
(lp288
(lp289
F716.31330725
aF707.455018061
aF894.771724405
aF884.496944014
aF1073.48520104
aF1732.15420843
aF1150.00848852
aF1230.94025318
aF1382.14660801
aF1522.0598553
aF1504.75646785
aF1688.70675654
aa(lp290
F694.888305806
aF686.16782602
aF868.156896067
aF858.045104247
aF1041.72904647
aF1681.46459502
aF1115.8388144
aF1194.6527503
aF1341.48892303
aF1477.58391118
aF1460.84433813
aF1639.88164576
aa(lp291
F724.223816568
aF715.315938921
aF904.597445183
aF894.263915063
aF1085.2078999
aF1750.86454238
aF1162.62392764
aF1244.33507908
aF1397.15443909
aF1538.47492993
aF1520.96280415
aF1706.72301217
aa(lp292
F743.269097659
aF734.244631098
aF928.251723347
aF917.779837998
aF1113.4265903
aF1795.90062253
aF1192.99552078
aF1276.57762786
aF1433.2793453
aF1577.98252448
aF1559.96660383
aF1750.07575045
aa(lp293
F737.215456766
aF728.227623632
aF920.733397164
aF910.305019894
aF1104.45785322
aF1781.58727342
aF1183.34193174
aF1266.33017645
aF1421.79802817
aF1565.42681282
aF1547.57121451
aF1736.29932557
aa(lp294
F688.171763942
aF679.495556964
aF859.812575253
aF849.753062529
aF1031.77187576
aF1665.56940249
aF1105.12636279
aF1183.2742516
aF1328.73993543
aF1463.63581386
aF1447.07252416
aF1624.56626655
aa(lp295
F673.000399932
aF664.426115732
aF840.962884496
aF831.023583168
aF1009.27707456
aF1629.6569413
aF1080.92790262
aF1157.5674829
aF1299.93659349
aF1432.12005854
aF1415.95412658
aF1589.95508825
aa(lp296
F673.941272768
aF665.360589553
aF842.131935005
aF832.18509213
aF1010.6722636
aF1631.88444587
aF1082.42865012
aF1159.16192695
aF1301.72311358
aF1434.07495082
aF1417.88440995
aF1592.10223402
aa(lp297
F689.128314157
aF680.445770371
aF861.000973344
aF850.933980231
aF1033.19000382
aF1667.83328415
aF1106.65201654
aF1184.89482486
aF1330.5557043
aF1465.6224196
aF1449.03403787
aF1626.7477113
aa(lp298
F677.714527699
aF669.108286331
aF846.820186367
aF836.843214507
aF1016.26730573
aF1640.81711564
aF1088.44714976
aF1165.55597551
aF1308.88740835
aF1441.91426967
aF1425.62499278
aF1600.71217814
aa(lp299
F666.441567926
aF657.912181296
aF832.813194785
aF822.926786715
aF999.550663865
aF1614.1276883
aF1070.46599894
aF1146.45183625
aF1287.48183906
aF1418.49098885
aF1402.49648087
aF1574.98474783
aa(lp300
F654.387036172
aF645.941502207
aF817.833747879
aF808.046031483
aF981.671920339
aF1585.58025929
aF1051.23711925
aF1126.01874211
aF1264.58690822
aF1393.43503368
aF1377.75501366
aF1547.45870647
aa(lp301
F666.441567926
aF657.912181296
aF832.813194785
aF822.926786715
aF999.550663865
aF1614.1276883
aF1070.46599894
aF1146.45183625
aF1287.48183906
aF1418.49098885
aF1402.49648087
aF1574.98474783
aa(lp302
F663.645223431
aF655.135133761
aF829.338468295
aF819.474782775
aF995.403540555
aF1607.50612215
aF1066.00548954
aF1141.7122925
aF1282.17129147
aF1412.67945724
aF1396.75796884
aF1568.60079467
aa(lp303
F671.121579576
aF662.560104673
aF838.628393636
aF828.704186455
aF1006.49097676
aF1625.20871856
aF1077.93105437
aF1154.38347021
aF1296.3690105
aF1428.21619121
aF1412.09938713
aF1585.66719684
aa(lp304
F639.774319866
aF631.432789225
aF799.673493196
aF790.00802345
aF959.994530076
aF1550.9635351
aF1027.92593294
aF1101.24300705
aF1236.82564563
aF1363.04924962
aF1347.74945023
aF1514.06981932
aa(lp305
F674.883121426
aF666.296042972
aF843.302189785
aF833.347809067
aF1012.06888045
aF1634.11421428
aF1083.93094771
aF1160.75799733
aF1303.51145409
aF1436.03181697
aF1419.81663719
aF1594.25151473
aa(lp306
F637.96497955
aF629.636508645
aF797.424749247
aF787.774617961
aF957.310095791
aF1546.67643577
aF1025.03942286
aF1098.17478621
aF1233.38765867
aF1359.28591402
aF1344.03311583
aF1509.93395358
aa(lp307
F637.96497955
aF629.636508645
aF797.424749247
aF787.774617961
aF957.310095791
aF1546.67643577
aF1025.03942286
aF1098.17478621
aF1233.38765867
aF1359.28591402
aF1344.03311583
aF1509.93395358
aa(lp308
F659.004039957
aF650.526183922
aF823.571187797
aF813.745443649
aF988.520040645
aF1596.51515252
aF1058.60210409
aF1133.84536891
aF1273.35654899
aF1403.03279213
aF1387.23240833
aF1558.00329823
aa(lp309
F634.35775019
aF626.055437006
aF792.941393904
aF783.321976593
aF951.957983238
aF1538.12878272
aF1019.28458331
aF1092.0574281
aF1226.53304118
aF1351.78240336
aF1336.62325878
aF1501.6872816
aa(lp310
F642.495499733
aF634.134403725
aF803.055457168
aF793.367003241
aF964.031672019
aF1557.41080458
aF1032.26708094
aF1105.85728615
aF1241.99599706
aF1368.70875338
aF1353.33823362
aF1520.28930672
aa(lp311
F622.739316795
aF614.52235813
aF778.500152213
aF768.980885758
aF934.71735119
aF1510.59243343
aF1000.74814354
aF1072.35110032
aF1204.45146682
aF1327.60848459
aF1312.7505189
aF1475.11552536
aa(lp312
F650.710796922
aF642.29118304
aF813.265224961
aF803.507991654
aF976.218830796
aF1576.87261023
aF1045.37270568
aF1119.78637809
aF1257.60358265
aF1385.79194693
aF1370.20768656
aF1539.06102569
aa(lp313
F621.852223492
aF613.641851604
aF777.397472908
aF767.88593065
aF933.400853763
aF1508.48962438
aF999.332791839
aF1070.84628179
aF1202.76525264
aF1325.7623665
aF1310.927367
aF1473.08605988
aa(lp314
F629.870139273
aF621.600593744
aF787.363642426
aF777.782685793
aF945.299193972
aF1527.4938813
aF1012.12504895
aF1084.44643656
aF1218.00472724
aF1342.44634926
aF1327.40361964
aF1491.42583056
aass(S'seir_mag'
p315
I3500
I00
tp316
(dp317
g4
(lp318
(lp319
F560.5046335208486
aF616.3289404528736
aF587.775110412151
aF798.3382587688471
aF990.0007950393805
aF1695.993700120115
aF1124.9191060482826
aF1129.9570437181208
aF1415.7073891205612
aF1585.0561024589929
aF1484.8054256914504
aF1793.0788897266625
aasg33
(lp320
g35
(S'\x07\xde\x07\x1c'
p321
tp322
Rp323
asg117
(lp324
(lp325
F681.503430096
aF672.871691943
aF851.527748393
aF841.520707831
aF1021.88524307
aF1649.78609004
aF1094.4905068
aF1171.97610304
aF1316.08089505
aF1449.78524072
aF1433.39674603
aF1609.35635598
aass(S'orig_spgr_mag'
p326
F11.0
I00
tp327
(dp328
g4
(lp329
(lp330
F674.6681807432005
aF934.060103541263
aF624.1908712125119
aF410.6423027633208
aF1000.0
aF1295.4916461099456
aF1176.1701254783743
aF1508.9048504820478
aF1600.1916911832834
aF1164.5881558944625
aF1000.0
aF1000.0
aa(lp331
F709.1530844342747
aF718.2732756145309
aF785.3987784991009
aF890.7435178098692
aF988.0068624790252
aF1743.5153585397702
aF1169.5753225052633
aF1281.6035272198378
aF1515.7033700812028
aF1659.125508738361
aF1657.7979610659909
aF1924.6918213340657
aa(lp332
F720.5724910363148
aF720.6593393278464
aF806.3865243534633
aF902.461945608199
aF1018.6108010910149
aF1839.216447442313
aF1207.2006938689194
aF1319.0601255069512
aF1565.0818884327434
aF1733.0506884172607
aF1692.5376745995854
aF1984.5494043694566
aa(lp333
F758.5039719487077
aF767.9454608005838
aF844.620067974838
aF972.6271114838304
aF1063.9709655352888
aF1926.118592036093
aF1282.036252151222
aF1439.8005508390513
aF1658.2921306759242
aF1816.6754568478505
aF1798.0997543039862
aF752.6611049750882
aa(lp334
F763.7999189572316
aF761.5955100588372
aF854.360338093907
aF942.4027751662779
aF1053.7469130969052
aF1879.7910163421393
aF1245.8430772050326
aF1360.7146798607737
aF1596.1301389395505
aF1768.3426317302385
aF1734.8257667852934
aF2030.5050505663119
aa(lp335
F696.1804387874088
aF708.0969550423827
aF785.0437879858088
aF873.9925435154158
aF985.0624077049043
aF1803.987337614061
aF1163.4982700801509
aF1332.6587160607612
aF1498.8655342441364
aF1686.611341621759
aF1685.0986311058373
aF1841.5665527007745
aa(lp336
F664.175740594298
aF679.74121317674
aF744.2497832661172
aF827.7873350950481
aF937.9172756682539
aF1711.8185332955222
aF1125.2332499271135
aF1273.0451181235505
aF1452.0842658585577
aF1586.4544220917862
aF1607.301819440276
aF1850.7025125979712
aa(lp337
F694.7683631486825
aF691.1584301365506
aF768.2840354296673
aF858.8546715488445
aF966.3587873816131
aF1750.1597071704214
aF1166.346291947602
aF1307.7786512624164
aF1506.690266353708
aF1670.6505198575553
aF1638.4985633873273
aF934.0243112781009
aa(lp338
F701.0695327886853
aF700.2602979739055
aF771.0611549232697
aF867.1908673215589
aF971.2930030692486
aF1745.1317305869602
aF1123.3699773658527
aF1287.1933936169503
aF1489.032959148385
aF1655.4434820262118
aF1639.978221901995
aF1901.7851535454188
aa(lp339
F683.9509223168378
aF668.754860268208
aF753.094056338096
aF831.2631015884464
aF938.1150077411535
aF1674.5689799593238
aF1099.392090438089
aF1234.203429491881
aF1429.324031389874
aF1599.7284080118961
aF1564.348296563303
aF1813.8460836868096
aa(lp340
F672.8463718093458
aF675.0559701565398
aF740.1188168081126
aF832.740538553801
aF938.4081048915702
aF1690.0345446551855
aF1100.682325412546
aF1241.2128156575818
aF1436.7827469050465
aF1596.0982348292014
aF1565.1625440544067
aF1833.1368164806631
aa(lp341
F697.4647172791462
aF703.0993688494748
aF787.0175200541834
aF881.3585759220567
aF973.5134179923665
aF1778.604485240249
aF1148.0521553918147
aF1299.4867241955135
aF1516.4848897184822
aF1672.2462953253628
aF1652.4501254278912
aF1918.232970797915
aa(lp342
F671.9548979831917
aF681.1085248957963
aF742.4278762961701
aF831.1515342648348
aF941.8037311909607
aF1692.7993948465414
aF1109.828773781014
aF1249.2715981017882
aF1462.0670978927403
aF1611.3468697803062
aF1597.3632585689206
aF1835.4887698763791
aa(lp343
F678.8889231830434
aF678.8385323636053
aF751.5651177437692
aF831.5247366487487
aF934.5557196247878
aF1714.8662715643432
aF1100.665238284848
aF1237.0773666077578
aF1453.754325317529
aF1582.5352950890044
aF1573.206676436837
aF1727.1410050075992
aa(lp344
F706.519880317569
aF719.005466938324
aF785.9903485638575
aF887.5253227493804
aF995.798797830407
aF1786.7337870720012
aF1166.302312894926
aF1332.1024100688
aF1534.6773292529647
aF1676.26435675237
aF1659.502370946809
aF1201.9256100877526
aa(lp345
F653.9442405218656
aF658.5051798166968
aF719.9688942368031
aF805.3584509539477
aF921.5717441269185
aF1657.970448815003
aF1078.769611476455
aF1222.4026054290855
aF1414.480494279789
aF1560.2029235660177
aF1542.280243245291
aF1783.6559954291863
aa(lp346
F740.0715284884623
aF749.4791948979722
aF818.1915811080863
aF923.0506583653258
aF1035.4037006759495
aF1880.8213105980508
aF1210.4796831025355
aF1380.2794086686708
aF1596.5198930343884
aF1758.9243034176266
aF1729.4812009166606
aF1249.693687985027
aa(lp347
F652.0949637624942
aF664.2928111095883
aF730.832845631722
aF809.8153396115392
aF914.7621998146008
aF1663.4129033336365
aF1078.8837831593726
aF1237.1119848798596
aF1415.094485508965
aF1544.2452452109906
aF1536.39046514019
aF1812.4145151450807
aa(lp348
F670.3633397502969
aF665.2917086853669
aF738.5986686409638
aF823.3914926687166
aF928.8459983162088
aF1702.8476797418007
aF1085.2095026219822
aF1231.8243617429393
aF1423.6996162720986
aF1579.848509809599
aF1565.4433714945947
aF1477.3023576357618
aa(lp349
F690.3793983843104
aF678.8002693633048
aF770.9732422564115
aF849.6232971355205
aF950.0125202101333
aF1729.3723765632956
aF1108.1853622211363
aF1227.3944230936986
aF1452.8850645642474
aF1628.32338966776
aF1568.27415270649
aF1842.679043504581
aa(lp350
F649.5464062193108
aF648.1764900089578
aF715.9873080396542
aF799.6336661816684
aF904.7663231861457
aF1610.4703603031687
aF1065.7818641464407
aF1161.9457283173667
aF1353.329280203035
aF1493.9778943807403
aF1475.4377706673167
aF1715.0641591910637
aa(lp351
F665.7970223313964
aF655.8686493787385
aF740.1697482111324
aF818.5663801619293
aF926.0082707995864
aF1709.447342515609
aF1096.3116822944594
aF1232.0052378689404
aF1437.4421331931046
aF1611.6402795407982
aF1565.421110608481
aF1759.7584690301478
aa(lp352
F635.7914193389131
aF622.2663963239434
aF703.4236986929054
aF783.8466008560438
aF871.3671317756482
aF1614.017755252008
aF1021.1620302668898
aF1169.538667914358
aF1381.9641920543538
aF1521.9036522488466
aF1486.4321797413952
aF1718.4421959258596
aa(lp353
F651.3875226281843
aF665.3713858545733
aF729.5956951188192
aF820.7362472845666
aF930.128964837205
aF1681.9819100193063
aF1070.4431419466746
aF1241.794256884398
aF1416.4826233356061
aF1561.27029523447
aF1557.278782195003
aF1779.8880284255483
aa(lp354
F641.38400233156
aF640.0300772314346
aF715.3827047566522
aF796.1640405113603
aF895.5257581957924
aF1617.344984026417
aF1055.4733863869226
aF1171.9744616553562
aF1377.3656866035249
aF1512.5566714407585
aF1486.6401812458914
aF1734.0795862936463
aa(lp355
F632.2025723219091
aF646.9136083818048
aF707.0653183017398
aF799.0841738597301
aF897.4903946684966
aF1617.016248311599
aF1054.0943466310305
aF1176.422545207774
aF1391.2602787978153
aF1523.6912886282073
aF1516.9642557901566
aF1765.742695706783
aasg33
(lp356
g212
ag215
ag218
ag221
ag224
ag227
ag230
ag233
ag236
ag239
ag242
ag245
ag248
ag251
ag254
ag257
ag260
ag263
ag266
ag269
ag272
ag275
ag278
ag281
ag284
ag287
asg117
(lp357
(lp358
F716.31330725
aF707.455018061
aF894.771724405
aF884.496944014
aF1073.48520104
aF1732.15420843
aF1150.00848852
aF1230.94025318
aF1382.14660801
aF1522.0598553
aF1504.75646785
aF1688.70675654
aa(lp359
F694.888305806
aF686.16782602
aF868.156896067
aF858.045104247
aF1041.72904647
aF1681.46459502
aF1115.8388144
aF1194.6527503
aF1341.48892303
aF1477.58391118
aF1460.84433813
aF1639.88164576
aa(lp360
F724.223816568
aF715.315938921
aF904.597445183
aF894.263915063
aF1085.2078999
aF1750.86454238
aF1162.62392764
aF1244.33507908
aF1397.15443909
aF1538.47492993
aF1520.96280415
aF1706.72301217
aa(lp361
F743.269097659
aF734.244631098
aF928.251723347
aF917.779837998
aF1113.4265903
aF1795.90062253
aF1192.99552078
aF1276.57762786
aF1433.2793453
aF1577.98252448
aF1559.96660383
aF1750.07575045
aa(lp362
F737.215456766
aF728.227623632
aF920.733397164
aF910.305019894
aF1104.45785322
aF1781.58727342
aF1183.34193174
aF1266.33017645
aF1421.79802817
aF1565.42681282
aF1547.57121451
aF1736.29932557
aa(lp363
F688.171763942
aF679.495556964
aF859.812575253
aF849.753062529
aF1031.77187576
aF1665.56940249
aF1105.12636279
aF1183.2742516
aF1328.73993543
aF1463.63581386
aF1447.07252416
aF1624.56626655
aa(lp364
F673.000399932
aF664.426115732
aF840.962884496
aF831.023583168
aF1009.27707456
aF1629.6569413
aF1080.92790262
aF1157.5674829
aF1299.93659349
aF1432.12005854
aF1415.95412658
aF1589.95508825
aa(lp365
F673.941272768
aF665.360589553
aF842.131935005
aF832.18509213
aF1010.6722636
aF1631.88444587
aF1082.42865012
aF1159.16192695
aF1301.72311358
aF1434.07495082
aF1417.88440995
aF1592.10223402
aa(lp366
F689.128314157
aF680.445770371
aF861.000973344
aF850.933980231
aF1033.19000382
aF1667.83328415
aF1106.65201654
aF1184.89482486
aF1330.5557043
aF1465.6224196
aF1449.03403787
aF1626.7477113
aa(lp367
F677.714527699
aF669.108286331
aF846.820186367
aF836.843214507
aF1016.26730573
aF1640.81711564
aF1088.44714976
aF1165.55597551
aF1308.88740835
aF1441.91426967
aF1425.62499278
aF1600.71217814
aa(lp368
F666.441567926
aF657.912181296
aF832.813194785
aF822.926786715
aF999.550663865
aF1614.1276883
aF1070.46599894
aF1146.45183625
aF1287.48183906
aF1418.49098885
aF1402.49648087
aF1574.98474783
aa(lp369
F654.387036172
aF645.941502207
aF817.833747879
aF808.046031483
aF981.671920339
aF1585.58025929
aF1051.23711925
aF1126.01874211
aF1264.58690822
aF1393.43503368
aF1377.75501366
aF1547.45870647
aa(lp370
F666.441567926
aF657.912181296
aF832.813194785
aF822.926786715
aF999.550663865
aF1614.1276883
aF1070.46599894
aF1146.45183625
aF1287.48183906
aF1418.49098885
aF1402.49648087
aF1574.98474783
aa(lp371
F663.645223431
aF655.135133761
aF829.338468295
aF819.474782775
aF995.403540555
aF1607.50612215
aF1066.00548954
aF1141.7122925
aF1282.17129147
aF1412.67945724
aF1396.75796884
aF1568.60079467
aa(lp372
F671.121579576
aF662.560104673
aF838.628393636
aF828.704186455
aF1006.49097676
aF1625.20871856
aF1077.93105437
aF1154.38347021
aF1296.3690105
aF1428.21619121
aF1412.09938713
aF1585.66719684
aa(lp373
F639.774319866
aF631.432789225
aF799.673493196
aF790.00802345
aF959.994530076
aF1550.9635351
aF1027.92593294
aF1101.24300705
aF1236.82564563
aF1363.04924962
aF1347.74945023
aF1514.06981932
aa(lp374
F674.883121426
aF666.296042972
aF843.302189785
aF833.347809067
aF1012.06888045
aF1634.11421428
aF1083.93094771
aF1160.75799733
aF1303.51145409
aF1436.03181697
aF1419.81663719
aF1594.25151473
aa(lp375
F637.96497955
aF629.636508645
aF797.424749247
aF787.774617961
aF957.310095791
aF1546.67643577
aF1025.03942286
aF1098.17478621
aF1233.38765867
aF1359.28591402
aF1344.03311583
aF1509.93395358
aa(lp376
F637.96497955
aF629.636508645
aF797.424749247
aF787.774617961
aF957.310095791
aF1546.67643577
aF1025.03942286
aF1098.17478621
aF1233.38765867
aF1359.28591402
aF1344.03311583
aF1509.93395358
aa(lp377
F659.004039957
aF650.526183922
aF823.571187797
aF813.745443649
aF988.520040645
aF1596.51515252
aF1058.60210409
aF1133.84536891
aF1273.35654899
aF1403.03279213
aF1387.23240833
aF1558.00329823
aa(lp378
F634.35775019
aF626.055437006
aF792.941393904
aF783.321976593
aF951.957983238
aF1538.12878272
aF1019.28458331
aF1092.0574281
aF1226.53304118
aF1351.78240336
aF1336.62325878
aF1501.6872816
aa(lp379
F642.495499733
aF634.134403725
aF803.055457168
aF793.367003241
aF964.031672019
aF1557.41080458
aF1032.26708094
aF1105.85728615
aF1241.99599706
aF1368.70875338
aF1353.33823362
aF1520.28930672
aa(lp380
F622.739316795
aF614.52235813
aF778.500152213
aF768.980885758
aF934.71735119
aF1510.59243343
aF1000.74814354
aF1072.35110032
aF1204.45146682
aF1327.60848459
aF1312.7505189
aF1475.11552536
aa(lp381
F650.710796922
aF642.29118304
aF813.265224961
aF803.507991654
aF976.218830796
aF1576.87261023
aF1045.37270568
aF1119.78637809
aF1257.60358265
aF1385.79194693
aF1370.20768656
aF1539.06102569
aa(lp382
F621.852223492
aF613.641851604
aF777.397472908
aF767.88593065
aF933.400853763
aF1508.48962438
aF999.332791839
aF1070.84628179
aF1202.76525264
aF1325.7623665
aF1310.927367
aF1473.08605988
aa(lp383
F629.870139273
aF621.600593744
aF787.363642426
aF777.782685793
aF945.299193972
aF1527.4938813
aF1012.12504895
aF1084.44643656
aF1218.00472724
aF1342.44634926
aF1327.40361964
aF1491.42583056
aass(g315
I3500
I01
tp384
(dp385
g4
(lp386
(lp387
F667.9017828644345
aF656.1206888992258
aF747.4443411896432
aF834.512263896381
aF938.9753509862608
aF1820.8117279096375
aF1130.8628091982653
aF1287.3575734930616
aF1491.4728338400466
aF1817.8710961035133
aF1634.5745096647736
aF1996.4506702614851
aasg33
(lp388
g323
asg117
(lp389
(lp390
F681.503430096
aF672.871691943
aF851.527748393
aF841.520707831
aF1021.88524307
aF1649.78609004
aF1094.4905068
aF1171.97610304
aF1316.08089505
aF1449.78524072
aF1433.39674603
aF1609.35635598
aass(S'seir_real'
p391
I4000
I00
tp392
(dp393
g4
(lp394
(lp395
F674.5263017610216
aF684.560016033493
aF780.6117595841687
aF766.9068156179202
aF901.7074308775537
aF955.9923325162251
aF895.0051943503319
aF896.5996015130946
aF910.7654712695069
aF928.2860299936345
aF925.9654386871335
aF949.0575962878709
aa(lp396
F683.352771529012
aF657.902918567304
aF800.3643483353037
aF767.0191808448171
aF904.7543565799916
aF951.7603052234864
aF895.6482856120888
aF896.2812681832767
aF908.4841233436783
aF923.6237940730693
aF919.8329891986768
aF851.2610803158858
aa(lp397
F949.4167481430529
aF950.7767723265467
aF956.769798880604
aF990.6138315168321
aF898.8484850884604
aF966.4178321708215
aF899.0248062607062
aF891.0696903228802
aF911.1276128779434
aF937.9089853201818
aF905.8366399503466
aF929.828545095392
aa(lp398
F745.3370107758273
aF747.5193854027079
aF949.6891530754392
aF963.4215549714173
aF896.0602427962808
aF970.7787307364747
aF900.1494379861973
aF906.7003774122097
aF927.1598512459842
aF949.2004826094585
aF942.3671415936436
aF758.0114726231104
aa(lp399
F721.0365038718272
aF717.6045438054475
aF1146.1542901457467
aF962.3667871778706
aF895.7459888627052
aF969.5889464100226
aF898.2529531476899
aF906.7840337295858
aF926.4352211525145
aF944.1576671673129
aF942.0773839747278
aF961.7959040705359
aa(lp400
F701.9390885226511
aF681.2069585576908
aF805.655372482738
aF768.2162901731339
aF898.9138988582067
aF961.6138362736581
aF895.3571613073368
aF898.8890744435314
aF912.9123163396201
aF933.897125478407
aF927.1249768012518
aF947.7145578766931
aa(lp401
F691.6609670646054
aF670.2760756825452
aF772.403893705227
aF777.6485624811905
aF903.559911442179
aF956.4158547785356
aF895.5317012563484
aF896.2600972853363
aF910.0629627731615
aF923.9354797195639
aF921.8175270675531
aF948.5693811467986
aa(lp402
F674.9326992095289
aF661.4819530603876
aF793.7615188556116
aF768.7046862384475
aF902.1903091138678
aF956.6319189335259
aF895.3289558105297
aF896.525215916549
aF911.4098486004533
aF943.1141952749576
aF925.7469659293847
aF595.2961984502397
aa(lp403
F677.6461946881166
aF698.786825623468
aF743.9013740931218
aF778.319740692475
aF899.162805229987
aF961.4457148622921
aF895.3070751124868
aF899.3973691169577
aF914.2096764574849
aF925.9056679842755
aF924.0540370674837
aF950.5181684390536
aa(lp404
F669.0193739000412
aF675.7622128297975
aF789.5586052082266
aF774.5973389145042
aF903.7667089083824
aF952.5116673849475
aF896.2653019687247
aF896.3748036878585
aF909.8582923930588
aF931.1420192799155
aF918.7196106181159
aF946.2567568219376
aa(lp405
F687.9888768663862
aF654.8801319702661
aF776.9072954292469
aF783.6884828227637
aF905.291063870259
aF956.1358224108837
aF896.3752055069536
aF896.5276613731455
aF910.7586748573723
aF927.2701444623303
aF919.8360020240079
aF950.5699668942301
aa(lp406
F651.9796485367515
aF652.3460754610019
aF812.5980576124505
aF792.9054777249072
aF910.2360221990571
aF950.4247294007795
aF897.3830630071648
aF896.0674268179139
aF909.6159555849677
aF941.1193271351667
aF913.4680913440446
aF957.9948299370157
aa(lp407
F691.8886593495852
aF650.6186484445665
aF804.9542340246855
aF778.3441324650632
aF903.9534576204377
aF957.4152539418105
aF895.4140991591789
aF896.1481389701958
aF910.3135614563962
aF929.333700150371
aF919.0732757837512
aF945.1807140284615
aa(lp408
F658.7271987679037
aF664.4461095749131
aF769.6733737021653
aF797.1561510960695
aF907.9770562274376
aF954.6439529338646
aF896.8772433057757
aF896.3075588295937
aF909.7812113485629
aF924.8405165696956
aF917.4847990917076
aF914.3144080505339
aa(lp409
F690.9780025667249
aF685.9341242365721
aF802.2073745643913
aF774.0741461132977
aF901.0717194431672
aF954.8562769558571
aF895.5870933698925
aF896.043620106096
aF911.7419739350233
aF937.8206577768879
aF922.6881622572326
aF717.8017713950796
aa(lp410
F668.0269958975741
aF637.8605917797076
aF817.9929754041871
aF777.1636526041904
aF911.9572595066714
aF949.053969343217
aF897.1421375332842
aF896.4928691616935
aF909.2444712781939
aF926.9865957279244
aF913.5332093990164
aF943.0936947306212
aa(lp411
F694.719394979899
aF685.0484971974295
aF805.5765824954361
aF774.3105464615858
aF899.4058876207199
aF959.7360614098097
aF895.3407540418186
aF896.9834114198426
aF913.8679332786272
aF923.1290284761056
aF926.5594206000322
aF585.6699704344474
aa(lp412
F636.5529558496646
aF647.4734447060531
aF802.9923148499211
aF773.6976438156482
aF913.3880210697605
aF947.0473825627857
aF897.1546618119498
aF894.7640168650761
aF907.3335690479939
aF912.2618877373136
aF914.4930332548292
aF932.0911436724257
aa(lp413
F647.4919734159257
aF643.4481640188856
aF772.4226591657439
aF782.0711464382197
aF913.2623163167387
aF948.4209181842031
aF897.077501333243
aF896.5121572983013
aF908.1923628671666
aF938.1689126562395
aF913.0481605922315
aF777.6899596620027
aa(lp414
F668.2633252577192
aF659.400809984948
aF780.5051379454807
aF778.3148646852865
aF904.0128744929327
aF956.6078358483828
aF896.135917742285
aF895.6942971171211
aF910.9935420489888
aF950.6545582491528
aF917.3364012410042
aF958.7952515105163
aa(lp415
F640.5414285963548
aF645.9231308480215
aF804.1104189498279
aF794.9559443942358
aF916.617598631091
aF946.2693292645929
aF899.1661740245007
aF895.3318934229154
aF906.0440643668167
aF914.6981516414008
aF911.3938531504161
aF930.9099447575609
aa(lp416
F662.7059605922315
aF648.1743424521634
aF778.7917686048594
aF787.8559028949119
aF910.1104020447356
aF951.9325769858365
aF896.2992865144362
aF896.038091242356
aF909.2932388687577
aF926.7433308593278
aF915.4314745723584
aF946.8935263310309
aa(lp417
F636.073681386494
aF624.2898516371279
aF804.9046864190282
aF785.3835213075218
aF925.3044210332727
aF945.1340022479814
aF900.8749510321984
aF896.149582480017
aF903.9810477216948
aF917.1408915130072
aF909.7407631601558
aF933.0107115691108
aa(lp418
F672.5510966143121
aF653.1344104904352
aF778.2947281384724
aF788.3437677463495
aF907.9456935817298
aF952.8494764957793
aF896.7335685353265
aF896.0227363174363
aF909.3838682240894
aF918.159597310267
aF917.1673385341746
aF938.7936407718464
aa(lp419
F639.7778717429785
aF625.9010673821157
aF773.739209026716
aF784.6085073671562
aF921.0929910020956
aF948.0209603973155
aF899.9702752053597
aF895.9863526545216
aF905.5799341185452
aF928.2508646481649
aF910.3749880975898
aF947.8997706234316
aa(lp420
F654.6889804442549
aF634.6383996546028
aF766.5599170943883
aF778.4363732755442
aF918.0522099789392
aF947.047477025204
aF898.6528842962363
aF895.7994535179553
aF905.6620195566563
aF913.2645509579835
aF911.7154065706155
aF937.9632497073432
aa(lp421
F711.721879065814
aF693.5918615816435
aF788.5790735852491
aF774.8080788028495
aF898.3338542270162
aF962.0835182118252
aF895.220113833103
aF898.7079755760277
aF914.7742698351419
aF920.3707034509222
aF924.2885242513801
aF941.8550136487726
aa(lp422
F628.4711192446717
aF639.6825282438156
aF770.2248180046541
aF780.7194594237083
aF913.4481754181152
aF949.606322686706
aF897.2871013893485
aF895.1132211494095
aF905.8997716397627
aF904.9725712096864
aF913.8226089165113
aF923.302878707078
aa(lp423
F712.0142126042076
aF701.9740015397914
aF794.143105919284
aF779.879070612923
aF897.2741877761164
aF961.2484008841575
aF895.8405499901065
aF899.6747482963112
aF916.2813102051939
aF923.0323398019957
aF927.7409249509652
aF944.3691062098944
aa(lp424
F677.3860550266342
aF696.8504763978929
aF753.7991237052848
aF774.1973112402171
aF899.1504484580098
aF959.3683923399699
aF895.7263143286264
aF899.2193376886391
aF916.2140052676345
aF925.2533550984436
aF928.7573646915914
aF951.0622619247852
aa(lp425
F753.6559536948926
aF737.5535825695848
aF963.7872181856566
aF965.8663129977915
aF895.7063379179917
aF971.9567939689131
aF898.2795114426377
aF905.3577478387582
aF928.7896534611971
aF946.8993515070439
aF943.0262423098815
aF960.5860385538268
aa(lp426
F712.4492085430686
aF693.5329444412591
aF1076.2257595230083
aF769.3910686342075
aF896.3780997020513
aF961.1442051252819
aF895.8531357825992
aF899.0247347624902
aF919.2548739446592
aF944.3330204635861
aF928.1503641217296
aF958.2703715106284
aa(lp427
F743.7639629580885
aF769.9685360887718
aF922.2441543176091
aF926.2822212324769
aF896.8454093094281
aF979.0328803778805
aF903.3061864759051
aF910.1546228517195
aF941.2723145396634
aF950.1618959528095
aF951.1528848121308
aF718.0529642693995
aasg33
(lp428
g35
(S'\x07\xde\x06\x12'
p429
tp430
Rp431
ag35
(S'\x07\xde\x06\x14'
p432
tp433
Rp434
ag35
(S'\x07\xde\x06\x1b'
p435
tp436
Rp437
ag35
(S'\x07\xde\x07\x03'
p438
tp439
Rp440
ag35
(S'\x07\xde\x07\x08'
p441
tp442
Rp443
ag35
(S'\x07\xde\x07\x12'
p444
tp445
Rp446
ag35
(S'\x07\xde\x07\x17'
p447
tp448
Rp449
ag35
(S'\x07\xde\x08\x01'
p450
tp451
Rp452
ag35
(S'\x07\xde\n\x17'
p453
tp454
Rp455
ag35
(S'\x07\xde\n\x1b'
p456
tp457
Rp458
ag35
(S'\x07\xde\x0c\n'
p459
tp460
Rp461
ag35
(S'\x07\xde\x0c\x11'
p462
tp463
Rp464
ag35
(S'\x07\xdf\x01\x07'
p465
tp466
Rp467
ag35
(S'\x07\xdf\x01\x14'
p468
tp469
Rp470
ag35
(S'\x07\xdf\x01\x1b'
p471
tp472
Rp473
ag35
(S'\x07\xdf\x02\x0b'
p474
tp475
Rp476
ag35
(S'\x07\xdf\x02\r'
p477
tp478
Rp479
ag35
(S'\x07\xdf\x02\x12'
p480
tp481
Rp482
ag35
(S'\x07\xdf\x02\x17'
p483
tp484
Rp485
ag35
(S'\x07\xdf\x02\x18'
p486
tp487
Rp488
ag35
(S'\x07\xdf\x02\x1b'
p489
tp490
Rp491
ag35
(S'\x07\xdf\x03\x02'
p492
tp493
Rp494
ag35
(S'\x07\xdf\x03\x03'
p495
tp496
Rp497
ag35
(S'\x07\xdf\x03\x04'
p498
tp499
Rp500
ag35
(S'\x07\xdf\x03\x05'
p501
tp502
Rp503
ag35
(S'\x07\xdf\x03\n'
p504
tp505
Rp506
ag35
(S'\x07\xdf\x05\x0b'
p507
tp508
Rp509
ag35
(S'\x07\xdf\x05\x0c'
p510
tp511
Rp512
ag35
(S'\x07\xdf\x05\x14'
p513
tp514
Rp515
ag35
(S'\x07\xdf\x06\x03'
p516
tp517
Rp518
ag35
(S'\x07\xdf\x06\x08'
p519
tp520
Rp521
ag35
(S'\x07\xdf\x06\x18'
p522
tp523
Rp524
ag35
(S'\x07\xdf\x06\x1e'
p525
tp526
Rp527
asg117
(lp528
(lp529
F694.888305806
aF686.16782602
aF868.156896067
aF858.045104247
aF1041.72904647
aF1681.46459502
aF1115.8388144
aF1194.6527503
aF1341.48892303
aF1477.58391118
aF1460.84433813
aF1639.88164576
aa(lp530
F685.308014199
aF676.650841587
aF856.254663335
aF846.217615353
aF1027.52612575
aF1658.79145196
aF1100.55877713
aF1178.42236703
aF1323.30363872
aF1457.68793404
aF1441.19973825
aF1618.03484218
aa(lp531
F724.223816568
aF715.315938921
aF904.597445183
aF894.263915063
aF1085.2078999
aF1750.86454238
aF1162.62392764
aF1244.33507908
aF1397.15443909
aF1538.47492993
aF1520.96280415
aF1706.72301217
aa(lp532
F743.269097659
aF734.244631098
aF928.251723347
aF917.779837998
aF1113.4265903
aF1795.90062253
aF1192.99552078
aF1276.57762786
aF1433.2793453
aF1577.98252448
aF1559.96660383
aF1750.07575045
aa(lp533
F737.215456766
aF728.227623632
aF920.733397164
aF910.305019894
aF1104.45785322
aF1781.58727342
aF1183.34193174
aF1266.33017645
aF1421.79802817
aF1565.42681282
aF1547.57121451
aF1736.29932557
aa(lp534
F688.171763942
aF679.495556964
aF859.812575253
aF849.753062529
aF1031.77187576
aF1665.56940249
aF1105.12636279
aF1183.2742516
aF1328.73993543
aF1463.63581386
aF1447.07252416
aF1624.56626655
aa(lp535
F673.000399932
aF664.426115732
aF840.962884496
aF831.023583168
aF1009.27707456
aF1629.6569413
aF1080.92790262
aF1157.5674829
aF1299.93659349
aF1432.12005854
aF1415.95412658
aF1589.95508825
aa(lp536
F673.941272768
aF665.360589553
aF842.131935005
aF832.18509213
aF1010.6722636
aF1631.88444587
aF1082.42865012
aF1159.16192695
aF1301.72311358
aF1434.07495082
aF1417.88440995
aF1592.10223402
aa(lp537
F689.128314157
aF680.445770371
aF861.000973344
aF850.933980231
aF1033.19000382
aF1667.83328415
aF1106.65201654
aF1184.89482486
aF1330.5557043
aF1465.6224196
aF1449.03403787
aF1626.7477113
aa(lp538
F677.714527699
aF669.108286331
aF846.820186367
aF836.843214507
aF1016.26730573
aF1640.81711564
aF1088.44714976
aF1165.55597551
aF1308.88740835
aF1441.91426967
aF1425.62499278
aF1600.71217814
aa(lp539
F666.441567926
aF657.912181296
aF832.813194785
aF822.926786715
aF999.550663865
aF1614.1276883
aF1070.46599894
aF1146.45183625
aF1287.48183906
aF1418.49098885
aF1402.49648087
aF1574.98474783
aa(lp540
F654.387036172
aF645.941502207
aF817.833747879
aF808.046031483
aF981.671920339
aF1585.58025929
aF1051.23711925
aF1126.01874211
aF1264.58690822
aF1393.43503368
aF1377.75501366
aF1547.45870647
aa(lp541
F666.441567926
aF657.912181296
aF832.813194785
aF822.926786715
aF999.550663865
aF1614.1276883
aF1070.46599894
aF1146.45183625
aF1287.48183906
aF1418.49098885
aF1402.49648087
aF1574.98474783
aa(lp542
F663.645223431
aF655.135133761
aF829.338468295
aF819.474782775
aF995.403540555
aF1607.50612215
aF1066.00548954
aF1141.7122925
aF1282.17129147
aF1412.67945724
aF1396.75796884
aF1568.60079467
aa(lp543
F671.121579576
aF662.560104673
aF838.628393636
aF828.704186455
aF1006.49097676
aF1625.20871856
aF1077.93105437
aF1154.38347021
aF1296.3690105
aF1428.21619121
aF1412.09938713
aF1585.66719684
aa(lp544
F639.774319866
aF631.432789225
aF799.673493196
aF790.00802345
aF959.994530076
aF1550.9635351
aF1027.92593294
aF1101.24300705
aF1236.82564563
aF1363.04924962
aF1347.74945023
aF1514.06981932
aa(lp545
F674.883121426
aF666.296042972
aF843.302189785
aF833.347809067
aF1012.06888045
aF1634.11421428
aF1083.93094771
aF1160.75799733
aF1303.51145409
aF1436.03181697
aF1419.81663719
aF1594.25151473
aa(lp546
F637.96497955
aF629.636508645
aF797.424749247
aF787.774617961
aF957.310095791
aF1546.67643577
aF1025.03942286
aF1098.17478621
aF1233.38765867
aF1359.28591402
aF1344.03311583
aF1509.93395358
aa(lp547
F637.96497955
aF629.636508645
aF797.424749247
aF787.774617961
aF957.310095791
aF1546.67643577
aF1025.03942286
aF1098.17478621
aF1233.38765867
aF1359.28591402
aF1344.03311583
aF1509.93395358
aa(lp548
F659.004039957
aF650.526183922
aF823.571187797
aF813.745443649
aF988.520040645
aF1596.51515252
aF1058.60210409
aF1133.84536891
aF1273.35654899
aF1403.03279213
aF1387.23240833
aF1558.00329823
aa(lp549
F634.35775019
aF626.055437006
aF792.941393904
aF783.321976593
aF951.957983238
aF1538.12878272
aF1019.28458331
aF1092.0574281
aF1226.53304118
aF1351.78240336
aF1336.62325878
aF1501.6872816
aa(lp550
F642.495499733
aF634.134403725
aF803.055457168
aF793.367003241
aF964.031672019
aF1557.41080458
aF1032.26708094
aF1105.85728615
aF1241.99599706
aF1368.70875338
aF1353.33823362
aF1520.28930672
aa(lp551
F622.739316795
aF614.52235813
aF778.500152213
aF768.980885758
aF934.71735119
aF1510.59243343
aF1000.74814354
aF1072.35110032
aF1204.45146682
aF1327.60848459
aF1312.7505189
aF1475.11552536
aa(lp552
F650.710796922
aF642.29118304
aF813.265224961
aF803.507991654
aF976.218830796
aF1576.87261023
aF1045.37270568
aF1119.78637809
aF1257.60358265
aF1385.79194693
aF1370.20768656
aF1539.06102569
aa(lp553
F621.852223492
aF613.641851604
aF777.397472908
aF767.88593065
aF933.400853763
aF1508.48962438
aF999.332791839
aF1070.84628179
aF1202.76525264
aF1325.7623665
aF1310.927367
aF1473.08605988
aa(lp554
F629.870139273
aF621.600593744
aF787.363642426
aF777.782685793
aF945.299193972
aF1527.4938813
aF1012.12504895
aF1084.44643656
aF1218.00472724
aF1342.44634926
aF1327.40361964
aF1491.42583056
aa(lp555
F695.851757757
aF687.124969586
aF869.353811663
aF859.234567476
aF1043.15727321
aF1683.74449568
aF1117.3754347
aF1196.28482718
aF1343.31756984
aF1479.58447947
aF1462.81960112
aF1642.07819
aa(lp556
F648.878453253
aF640.471819895
aF810.988091757
aF801.246119949
aF973.500737447
aF1572.53217883
aF1042.44967086
aF1116.67982187
aF1254.12269293
aF1381.98208589
aF1366.44552875
aF1534.87482363
aa(lp557
F703.594988685
aF694.81788304
aF878.973089801
aF868.794374373
aF1054.63520025
aF1702.06637826
aF1129.7249941
aF1209.40080686
aF1358.01320381
aF1495.66108131
aF1478.69265812
aF1659.72846287
aa(lp558
F692.003873149
aF683.302343091
aF864.573459164
aF854.484048684
aF1037.45303314
aF1674.63864165
aF1111.23836553
aF1189.7663924
aF1336.01403499
aF1471.59418945
aF1454.93034918
aF1633.30497171
aa(lp559
F741.247170705
aF732.234896056
aF925.740620315
aF915.283218525
aF1110.43108934
aF1791.12010004
aF1189.77122222
aF1273.15506342
aF1429.44468364
aF1573.78909597
aF1555.82674272
aF1745.4747536
aa(lp560
F703.594988685
aF694.81788304
aF878.973089801
aF868.794374373
aF1054.63520025
aF1702.06637826
aF1129.7249941
aF1209.40080686
aF1358.01320381
aF1495.66108131
aF1478.69265812
aF1659.72846287
aa(lp561
F678.660285009
aF670.047663654
aF847.995264847
aF838.010770121
aF1017.66964168
aF1643.05595244
aF1089.95565646
aF1167.15856024
aF1310.68304074
aF1443.8790423
aF1427.56500618
aF1602.87001027
aass(S'seirepi_real'
p562
I7000
I01
tp563
(dp564
g4
(lp565
(lp566
F1066.0913547434575
aF875.2800962837193
aF1016.4731106757254
aF888.940638629838
aF917.6849016762244
aF1380.8177543116187
aF1034.6174422775646
aF791761.0997800092
aF1311.2826134784182
aF1267.1734641885434
aF634816.2732997307
aF1430.591329409428
aa(lp567
F824.2243287908805
aF837.4107229733041
aF819.3052755451884
aF928.4983226549034
aF934.5537881995986
aF1427.1334375473136
aF1101.126182681162
aF1215.1853143262692
aF1395.5688863044077
aF1399.7452199072925
aF1371.7444528821684
aF1473.1009563742978
aa(lp568
F1032.527421133753
aF809.2760542097227
aF5567.609554729135
aF915.1191007508066
aF906.6226444716254
aF1364.7697995635856
aF1068.4592293973046
aF1387.0499683621435
aF1255.576678922634
aF1271.0342327155824
aF961757.5274286369
aF1352.684197026602
aa(lp569
F849.9614649547804
aF864.9022757413035
aF832.738996738802
aF951.4801147341792
aF956.6572016107154
aF1385.6875673150723
aF1156.238083628082
aF1244.3921393151072
aF1359.8417704660756
aF1411.4032441458846
aF1448.3561121108164
aF414.4306944601135
aasg33
(lp570
g35
(S'\x07\xdf\x06\x03'
p571
tp572
Rp573
ag35
(S'\x07\xdf\x06\x08'
p574
tp575
Rp576
ag35
(S'\x07\xdf\x06\x18'
p577
tp578
Rp579
ag35
(S'\x07\xdf\x06\x1e'
p580
tp581
Rp582
asg117
(lp583
(lp584
F692.003873149
aF683.302343091
aF864.573459164
aF854.484048684
aF1037.45303314
aF1674.63864165
aF1111.23836553
aF1189.7663924
aF1336.01403499
aF1471.59418945
aF1454.93034918
aF1633.30497171
aa(lp585
F741.247170705
aF732.234896056
aF925.740620315
aF915.283218525
aF1110.43108934
aF1791.12010004
aF1189.77122222
aF1273.15506342
aF1429.44468364
aF1573.78909597
aF1555.82674272
aF1745.4747536
aa(lp586
F703.594988685
aF694.81788304
aF878.973089801
aF868.794374373
aF1054.63520025
aF1702.06637826
aF1129.7249941
aF1209.40080686
aF1358.01320381
aF1495.66108131
aF1478.69265812
aF1659.72846287
aa(lp587
F678.660285009
aF670.047663654
aF847.995264847
aF838.010770121
aF1017.66964168
aF1643.05595244
aF1089.95565646
aF1167.15856024
aF1310.68304074
aF1443.8790423
aF1427.56500618
aF1602.87001027
aass(S'seir_real'
p588
I4000
I01
tp589
(dp590
g4
(lp591
(lp592
F649.0674238585007
aF647.3183283952404
aF675.7166695538962
aF747.436686479699
aF811.5876402889816
aF951.2581371206655
aF893.4978979270777
aF927.7234812410021
aF973.4333336691554
aF1045.1266773252253
aF995.6198932058527
aF1053.3651461813356
aa(lp593
F641.7075734814928
aF613.7203390692566
aF675.2708952450895
aF737.3452233871529
aF796.4904693832027
aF949.4851600354317
aF885.8968021746359
aF934.143180103522
aF968.4984714042785
aF1001.7198954937722
aF983.2421017631114
aF937.0926025697452
aa(lp594
F891.3641821507731
aF881.6260967868668
aF796.8103464350545
aF912.0086875618525
aF780.8540719586288
aF889.8603600711042
aF837.1154282304714
aF895.6810862844849
aF950.566539130889
aF990.4043066775204
aF927.7691328259317
aF1000.8760771958828
aa(lp595
F695.3472363577965
aF707.5290430245091
aF779.419650616962
aF930.4506100326398
aF780.2969122382968
aF980.1242277918236
aF903.1759389832974
aF933.7981723821053
aF994.884477738875
aF1011.8412816973763
aF1014.0416748956022
aF844.6316007577763
aa(lp596
F692.8171832158822
aF686.900533417891
aF989.0412058444141
aF934.9555113983397
aF799.1179613588428
aF990.32681645908
aF895.8526159332721
aF886.9000760882252
aF954.7638793499676
aF1003.794722768945
aF965.3187721710073
aF1023.2532306359496
aa(lp597
F658.5229016949521
aF650.484180874212
aF675.3274482896524
aF750.5525119247242
aF812.7137081356369
aF966.8358624824205
aF898.1831340529686
aF945.5596670852299
aF977.0217505994626
aF1037.6391621188684
aF1014.3340717468932
aF1071.0200201596751
aa(lp598
F640.57465458265
aF629.7795461705192
aF643.5747540729704
aF756.6330859458732
aF787.695865000802
aF917.2101827574469
aF867.5339633369498
aF917.5710581691327
aF946.0674622915606
aF972.6182147099408
aF973.3630675069651
aF1030.775201407542
aa(lp599
F631.2468508646036
aF626.065248150539
aF665.9239042003707
aF735.0099307429498
aF795.8586192180202
aF943.5915754794206
aF882.530834428796
aF950.905086240193
aF976.9206721908952
aF1053.553749580972
aF993.9058949591913
aF808.6485033808242
aa(lp600
F643.7258214229856
aF656.1763565029026
aF630.2497374542639
aF752.5606096291519
aF808.8027414924421
aF978.5054224945467
aF907.9067251355866
aF920.8028488234518
aF983.2071542105473
aF1022.1340648850944
aF964.9793049242215
aF1052.6019290549357
aa(lp601
F651.5786658975941
aF637.4088432068553
aF672.260998400237
aF757.8972197719131
aF815.7361235233557
aF988.0562772534145
aF933.5795355547498
aF922.9635935677334
aF995.1932097651849
aF1041.6238475473951
aF976.0738008300485
aF1058.1028608534232
aa(lp602
F657.8282820740122
aF616.4526008263922
aF649.9335539679179
aF744.1095538919149
aF802.3430922963952
aF952.8697418484754
aF918.4264595049784
aF905.1312107981465
aF952.8299072801752
aF1029.6760970873931
aF975.9440337036489
aF1079.8797173399357
aa(lp603
F617.1630039171687
aF609.8021004296725
aF683.9607894434178
aF748.5256786334132
aF791.2850386304981
aF952.8198099722543
aF882.322502236087
aF928.3641663159324
aF966.8312861539704
aF1022.6304035885139
aF949.0146116104025
aF1046.2939752022917
aa(lp604
F658.8434921084411
aF610.1831204422274
aF692.0902924913664
aF749.1119050350362
aF777.8431472920648
aF965.4798376609368
aF897.5305864062994
aF955.8659801451719
aF1017.5450513969898
aF1041.0152107723334
aF980.2391204917196
aF1044.0328100436427
aa(lp605
F622.6898226688012
aF618.5185906994278
aF650.9372258784116
aF761.4678636289004
aF771.087424276396
aF939.9440229044455
aF889.218642922283
aF935.6528357058666
aF969.0857280203512
aF1011.7574321947368
aF976.4115090642998
aF1004.283362839639
aa(lp606
F654.4154322794883
aF657.6090814493309
aF688.9140163892368
aF741.3200497237535
aF789.7804065833011
aF964.7727900807301
aF885.554446568081
aF955.5552482574966
aF948.50364906282
aF1015.8823363040428
aF1010.1752112023222
aF802.3548522807852
aa(lp607
F616.5863090793688
aF593.2929001140261
aF689.224052294732
aF739.8622126996128
aF799.1587264820848
aF940.3906557734776
aF874.2077967018357
aF929.0323354811472
aF981.666908525416
aF982.1418778898687
aF962.626880131895
aF1023.2601961748063
aa(lp608
F676.6428156288515
aF668.9501864191554
aF703.9721563030906
aF756.5890543826256
aF814.1393179076962
aF963.4932337452814
aF884.6657927698561
aF976.999384054306
aF981.9583394244636
aF1010.5827193650335
aF1019.466144665728
aF667.5840493868897
aa(lp609
F610.3847698830485
aF615.3969251840847
aF692.8051130426729
aF744.017401825246
aF813.8559693084704
aF964.132515672376
aF900.5258468577371
aF961.7132493060273
aF963.9737249239951
aF1009.1697845131727
aF1002.5545818060403
aF1055.715708841298
aa(lp610
F617.9865760419557
aF609.341080177365
aF670.9808020524118
aF755.6075163875943
aF814.4451269884308
aF953.3834810005447
aF883.3642951192801
aF958.3331185361972
aF978.7406291400987
aF1035.1646120299697
aF1002.97158262959
aF964.6978999348609
aa(lp611
F642.1639693119116
aF613.2077455425357
aF672.4899461491259
aF732.8999963901069
aF783.5446489144227
aF928.3477179233979
aF898.390074405598
aF920.4877263933765
aF987.5342473692859
aF1052.0246109931268
aF965.6043390817096
aF1043.4539723493283
aa(lp612
F611.7010232940338
aF618.3293620913649
aF689.4269549277406
aF770.8493320522044
aF811.1947365478148
aF962.260336840711
aF914.0462653052692
aF901.3009298815961
aF954.3593626180398
aF968.1800617089509
aF928.723505449062
aF978.3477864464968
aa(lp613
F628.869814594151
aF603.3282303867236
aF666.4504525593954
aF739.9249571939091
aF788.3916527621946
aF965.0001336904553
aF888.0872125548252
aF937.5054728819491
aF982.5000569781686
aF1026.389989161779
aF974.5694378793569
aF1038.5312734580789
aa(lp614
F614.1965268489112
aF585.0257813423677
aF695.967005785271
aF755.2142163652304
aF815.4671763535406
aF949.3431490748277
aF889.9265259165431
aF948.1981647440903
aF967.4185133460558
aF1004.5263920258973
aF984.0438032401997
aF1038.694740821093
aa(lp615
F610.157649566998
aF601.0393169050643
aF641.1418695563079
aF726.9745866223473
aF773.8059793874518
aF899.3392467781047
aF862.7490760401276
aF908.125402299326
aF921.4127853013177
aF955.6410146984184
aF953.790152348253
aF984.3091144027509
aa(lp616
F606.9945211691752
aF587.7699224297918
aF660.559673499817
aF746.8761325624337
aF805.097775803869
aF927.5761303715817
aF888.2300382039666
aF905.6572363287123
aF931.2421623002081
aF974.9777851373897
aF953.004583524622
aF1012.0280053619344
aa(lp617
F626.5812347545003
aF610.2686943701852
aF664.3159398565671
aF767.6231669276098
aF814.1173223430118
aF1016.6366602349572
aF916.6677499027957
aF913.521032636009
aF984.7042325869902
aF995.5162114160113
aF956.9499701796185
aF1028.1853712324332
aa(lp618
F679.6474019972746
aF654.8346238679449
aF674.3635980936715
aF736.2165279424152
aF811.060965200958
aF924.8273136343938
aF881.4913337482069
aF925.5524974325625
aF983.425982125671
aF1040.3070783786757
aF971.6248298419731
aF1052.4632309471494
aa(lp619
F594.4816148677598
aF605.1895323332317
aF650.0237888740654
aF755.695739070101
aF807.2423868902666
aF975.8051206473697
aF895.9306453430262
aF974.6363149874068
aF1001.1400304338162
aF1035.8497376425307
aF989.4603063414874
aF1074.3026290124767
aa(lp620
F681.4244756084337
aF662.063395416539
aF705.9996427710308
aF762.5036359284107
aF827.3430558462359
aF1010.8008023033033
aF934.4178139729156
aF935.2357742839849
aF1033.6541994035895
aF1049.2577620213262
aF991.6349796043306
aF1066.1293991169528
aa(lp621
F656.7753647548171
aF662.0155340717474
aF648.2361220859332
aF742.3702311587045
aF809.7722793763644
aF938.03753678453
aF902.3424085769849
aF958.492338995882
aF1030.4473558157604
aF1068.936831627301
aF1011.841452462212
aF1082.94324293925
aa(lp622
F709.8106162557651
aF716.4144448773152
aF832.64401471115
aF938.1042472187072
aF824.0210010051186
aF999.6385128481447
aF907.5785825866692
aF984.8706539215207
aF1072.5273826260368
aF1076.629478755847
aF1027.3499902206981
aF1118.094172286004
aa(lp623
F680.9854195393635
aF656.1663533070898
aF932.6456734889164
aF757.1584735924029
aF810.9029823636012
aF974.5910854980493
aF917.7789373400007
aF909.4853918460923
aF982.6120100904818
aF1047.2873260671809
aF985.0705083326809
aF1071.357241415143
aa(lp624
F703.8022363679866
aF761.1696286174034
aF801.4192802946912
aF896.3042704809517
aF821.1859793386919
aF995.4475899700799
aF927.2114483998959
aF995.3850646396836
aF1047.4792998229414
aF1066.063841158778
aF1052.2925471438055
aF850.3348606767943
aasg33
(lp625
g431
ag434
ag437
ag440
ag443
ag446
ag449
ag452
ag455
ag458
ag461
ag464
ag467
ag470
ag473
ag476
ag479
ag482
ag485
ag488
ag491
ag494
ag497
ag500
ag503
ag506
ag509
ag512
ag515
ag518
ag521
ag524
ag527
asg117
(lp626
(lp627
F694.888305806
aF686.16782602
aF868.156896067
aF858.045104247
aF1041.72904647
aF1681.46459502
aF1115.8388144
aF1194.6527503
aF1341.48892303
aF1477.58391118
aF1460.84433813
aF1639.88164576
aa(lp628
F685.308014199
aF676.650841587
aF856.254663335
aF846.217615353
aF1027.52612575
aF1658.79145196
aF1100.55877713
aF1178.42236703
aF1323.30363872
aF1457.68793404
aF1441.19973825
aF1618.03484218
aa(lp629
F724.223816568
aF715.315938921
aF904.597445183
aF894.263915063
aF1085.2078999
aF1750.86454238
aF1162.62392764
aF1244.33507908
aF1397.15443909
aF1538.47492993
aF1520.96280415
aF1706.72301217
aa(lp630
F743.269097659
aF734.244631098
aF928.251723347
aF917.779837998
aF1113.4265903
aF1795.90062253
aF1192.99552078
aF1276.57762786
aF1433.2793453
aF1577.98252448
aF1559.96660383
aF1750.07575045
aa(lp631
F737.215456766
aF728.227623632
aF920.733397164
aF910.305019894
aF1104.45785322
aF1781.58727342
aF1183.34193174
aF1266.33017645
aF1421.79802817
aF1565.42681282
aF1547.57121451
aF1736.29932557
aa(lp632
F688.171763942
aF679.495556964
aF859.812575253
aF849.753062529
aF1031.77187576
aF1665.56940249
aF1105.12636279
aF1183.2742516
aF1328.73993543
aF1463.63581386
aF1447.07252416
aF1624.56626655
aa(lp633
F673.000399932
aF664.426115732
aF840.962884496
aF831.023583168
aF1009.27707456
aF1629.6569413
aF1080.92790262
aF1157.5674829
aF1299.93659349
aF1432.12005854
aF1415.95412658
aF1589.95508825
aa(lp634
F673.941272768
aF665.360589553
aF842.131935005
aF832.18509213
aF1010.6722636
aF1631.88444587
aF1082.42865012
aF1159.16192695
aF1301.72311358
aF1434.07495082
aF1417.88440995
aF1592.10223402
aa(lp635
F689.128314157
aF680.445770371
aF861.000973344
aF850.933980231
aF1033.19000382
aF1667.83328415
aF1106.65201654
aF1184.89482486
aF1330.5557043
aF1465.6224196
aF1449.03403787
aF1626.7477113
aa(lp636
F677.714527699
aF669.108286331
aF846.820186367
aF836.843214507
aF1016.26730573
aF1640.81711564
aF1088.44714976
aF1165.55597551
aF1308.88740835
aF1441.91426967
aF1425.62499278
aF1600.71217814
aa(lp637
F666.441567926
aF657.912181296
aF832.813194785
aF822.926786715
aF999.550663865
aF1614.1276883
aF1070.46599894
aF1146.45183625
aF1287.48183906
aF1418.49098885
aF1402.49648087
aF1574.98474783
aa(lp638
F654.387036172
aF645.941502207
aF817.833747879
aF808.046031483
aF981.671920339
aF1585.58025929
aF1051.23711925
aF1126.01874211
aF1264.58690822
aF1393.43503368
aF1377.75501366
aF1547.45870647
aa(lp639
F666.441567926
aF657.912181296
aF832.813194785
aF822.926786715
aF999.550663865
aF1614.1276883
aF1070.46599894
aF1146.45183625
aF1287.48183906
aF1418.49098885
aF1402.49648087
aF1574.98474783
aa(lp640
F663.645223431
aF655.135133761
aF829.338468295
aF819.474782775
aF995.403540555
aF1607.50612215
aF1066.00548954
aF1141.7122925
aF1282.17129147
aF1412.67945724
aF1396.75796884
aF1568.60079467
aa(lp641
F671.121579576
aF662.560104673
aF838.628393636
aF828.704186455
aF1006.49097676
aF1625.20871856
aF1077.93105437
aF1154.38347021
aF1296.3690105
aF1428.21619121
aF1412.09938713
aF1585.66719684
aa(lp642
F639.774319866
aF631.432789225
aF799.673493196
aF790.00802345
aF959.994530076
aF1550.9635351
aF1027.92593294
aF1101.24300705
aF1236.82564563
aF1363.04924962
aF1347.74945023
aF1514.06981932
aa(lp643
F674.883121426
aF666.296042972
aF843.302189785
aF833.347809067
aF1012.06888045
aF1634.11421428
aF1083.93094771
aF1160.75799733
aF1303.51145409
aF1436.03181697
aF1419.81663719
aF1594.25151473
aa(lp644
F637.96497955
aF629.636508645
aF797.424749247
aF787.774617961
aF957.310095791
aF1546.67643577
aF1025.03942286
aF1098.17478621
aF1233.38765867
aF1359.28591402
aF1344.03311583
aF1509.93395358
aa(lp645
F637.96497955
aF629.636508645
aF797.424749247
aF787.774617961
aF957.310095791
aF1546.67643577
aF1025.03942286
aF1098.17478621
aF1233.38765867
aF1359.28591402
aF1344.03311583
aF1509.93395358
aa(lp646
F659.004039957
aF650.526183922
aF823.571187797
aF813.745443649
aF988.520040645
aF1596.51515252
aF1058.60210409
aF1133.84536891
aF1273.35654899
aF1403.03279213
aF1387.23240833
aF1558.00329823
aa(lp647
F634.35775019
aF626.055437006
aF792.941393904
aF783.321976593
aF951.957983238
aF1538.12878272
aF1019.28458331
aF1092.0574281
aF1226.53304118
aF1351.78240336
aF1336.62325878
aF1501.6872816
aa(lp648
F642.495499733
aF634.134403725
aF803.055457168
aF793.367003241
aF964.031672019
aF1557.41080458
aF1032.26708094
aF1105.85728615
aF1241.99599706
aF1368.70875338
aF1353.33823362
aF1520.28930672
aa(lp649
F622.739316795
aF614.52235813
aF778.500152213
aF768.980885758
aF934.71735119
aF1510.59243343
aF1000.74814354
aF1072.35110032
aF1204.45146682
aF1327.60848459
aF1312.7505189
aF1475.11552536
aa(lp650
F650.710796922
aF642.29118304
aF813.265224961
aF803.507991654
aF976.218830796
aF1576.87261023
aF1045.37270568
aF1119.78637809
aF1257.60358265
aF1385.79194693
aF1370.20768656
aF1539.06102569
aa(lp651
F621.852223492
aF613.641851604
aF777.397472908
aF767.88593065
aF933.400853763
aF1508.48962438
aF999.332791839
aF1070.84628179
aF1202.76525264
aF1325.7623665
aF1310.927367
aF1473.08605988
aa(lp652
F629.870139273
aF621.600593744
aF787.363642426
aF777.782685793
aF945.299193972
aF1527.4938813
aF1012.12504895
aF1084.44643656
aF1218.00472724
aF1342.44634926
aF1327.40361964
aF1491.42583056
aa(lp653
F695.851757757
aF687.124969586
aF869.353811663
aF859.234567476
aF1043.15727321
aF1683.74449568
aF1117.3754347
aF1196.28482718
aF1343.31756984
aF1479.58447947
aF1462.81960112
aF1642.07819
aa(lp654
F648.878453253
aF640.471819895
aF810.988091757
aF801.246119949
aF973.500737447
aF1572.53217883
aF1042.44967086
aF1116.67982187
aF1254.12269293
aF1381.98208589
aF1366.44552875
aF1534.87482363
aa(lp655
F703.594988685
aF694.81788304
aF878.973089801
aF868.794374373
aF1054.63520025
aF1702.06637826
aF1129.7249941
aF1209.40080686
aF1358.01320381
aF1495.66108131
aF1478.69265812
aF1659.72846287
aa(lp656
F692.003873149
aF683.302343091
aF864.573459164
aF854.484048684
aF1037.45303314
aF1674.63864165
aF1111.23836553
aF1189.7663924
aF1336.01403499
aF1471.59418945
aF1454.93034918
aF1633.30497171
aa(lp657
F741.247170705
aF732.234896056
aF925.740620315
aF915.283218525
aF1110.43108934
aF1791.12010004
aF1189.77122222
aF1273.15506342
aF1429.44468364
aF1573.78909597
aF1555.82674272
aF1745.4747536
aa(lp658
F703.594988685
aF694.81788304
aF878.973089801
aF868.794374373
aF1054.63520025
aF1702.06637826
aF1129.7249941
aF1209.40080686
aF1358.01320381
aF1495.66108131
aF1478.69265812
aF1659.72846287
aa(lp659
F678.660285009
aF670.047663654
aF847.995264847
aF838.010770121
aF1017.66964168
aF1643.05595244
aF1089.95565646
aF1167.15856024
aF1310.68304074
aF1443.8790423
aF1427.56500618
aF1602.87001027
aass(S'seirepi_real'
p660
I7000
I00
tp661
(dp662
g4
(lp663
(lp664
F1145.3044818981891
aF899.1533856693528
aF1183.9138827460115
aF931.1654436261606
aF1002.484107019219
aF1409.9602344212583
aF1031.7872889739751
aF746544.326655273
aF1170.181466905027
aF1173.1053482723316
aF603586.1991305511
aF1233.7674432690876
aa(lp665
F872.1819218902345
aF864.7505588420237
aF949.1942086280203
aF955.9168437803446
aF1016.7542075648365
aF1389.0150496453934
aF1088.6403012409962
aF1116.4171106965277
aF1208.5349226930223
aF1224.6521173665483
aF1257.5344596866364
aF1269.6198483496016
aa(lp666
F1113.4621057186455
aF848.3405973018866
aF6407.050072773351
aF938.7818097866052
aF999.6040361597688
aF1344.881610268497
aF1049.3585245191382
aF1376.1914296646178
aF1174.7827688075413
aF1184.2263102087106
aF927564.5482926111
aF1226.7036790935551
aa(lp667
F886.1840547907768
aF880.6681918439482
aF964.7478680445329
aF981.6678501048812
aF1046.0129462562688
aF1400.0592226276558
aF1126.5916152222276
aF1133.5533926126325
aF1231.9138185998468
aF1249.218437889054
aF1290.3908865721148
aF350.8825341494975
aasg33
(lp668
g573
ag576
ag579
ag582
asg117
(lp669
(lp670
F692.003873149
aF683.302343091
aF864.573459164
aF854.484048684
aF1037.45303314
aF1674.63864165
aF1111.23836553
aF1189.7663924
aF1336.01403499
aF1471.59418945
aF1454.93034918
aF1633.30497171
aa(lp671
F741.247170705
aF732.234896056
aF925.740620315
aF915.283218525
aF1110.43108934
aF1791.12010004
aF1189.77122222
aF1273.15506342
aF1429.44468364
aF1573.78909597
aF1555.82674272
aF1745.4747536
aa(lp672
F703.594988685
aF694.81788304
aF878.973089801
aF868.794374373
aF1054.63520025
aF1702.06637826
aF1129.7249941
aF1209.40080686
aF1358.01320381
aF1495.66108131
aF1478.69265812
aF1659.72846287
aa(lp673
F678.660285009
aF670.047663654
aF847.995264847
aF838.010770121
aF1017.66964168
aF1643.05595244
aF1089.95565646
aF1167.15856024
aF1310.68304074
aF1443.8790423
aF1427.56500618
aF1602.87001027
aass(S'orig_spgr_mag'
p674
F14.0
I00
tp675
(dp676
g4
(lp677
(lp678
F684.023505686261
aF723.8019867838159
aF772.1339332991815
aF882.6142704165076
aF982.7146369589328
aF1865.841426170083
aF1200.0636703517423
aF1326.9849824931505
aF1547.9082193787635
aF1695.3101267577333
aF1713.5175352147126
aF1992.9095871421864
aa(lp679
F635.6550328981942
aF668.4733257394291
aF723.0748284344958
aF809.4220724779179
aF911.6994662594051
aF1751.1985132446712
aF1093.7689770707054
aF1281.1735397326781
aF1414.2747759047797
aF1573.5301828641695
aF1617.1333025903843
aF1859.9906164589008
aa(lp680
F650.1313439366488
aF785.8659683589061
aF1261.7937710753704
aF889.9064294478147
aF989.6137640275913
aF1866.4088459105133
aF1200.4308471299917
aF1305.1619650095095
aF1580.1778709144103
aF1536.5635089138877
aF1721.0371252191828
aF1910.9029851729927
aa(lp681
F657.4421985637442
aF984849.9210591344
aF904.000461872862
aF873.2347440754539
aF866.8874088183688
aF1833.9324834590086
aF1166.7344485741569
aF1227.7076235952156
aF1523.2511779628342
aF1553.8056405528255
aF3455255.2478354867
aF2884222.976295726
aa(lp682
F739.0456891514249
aF774.6663729198071
aF836.5408398034141
aF949.3434323378884
aF1061.2406082724985
aF2010.2819264025318
aF1263.3855707948185
aF1468.12436910591
aF1667.428144670245
aF1818.1003817309568
aF1843.8581828284518
aF2073.6192071789696
aa(lp683
F683.4512092130329
aF783.3032675953847
aF786.219604597021
aF891.2076929060677
aF1042.9493374326698
aF1923.0792471180864
aF1219.5271674845662
aF1346.439622909219
aF1597.3201698398773
aF1681.737073446347
aF1727.8209707797596
aF1995.7737650565537
aa(lp684
F794.6822389489321
aF820.6945704972263
aF904.5524971636203
aF1024.7928493863956
aF1132.9361596923306
aF2200.191491379809
aF1379.0239310997745
aF1570.462049932476
aF1778.3862449753808
aF1955.120234019154
aF1953.925881899209
aF583.7933700021619
aasg33
(lp685
g35
(S'\x07\xdf\x05\x0b'
p686
tp687
Rp688
ag35
(S'\x07\xdf\x05\x0c'
p689
tp690
Rp691
ag35
(S'\x07\xdf\x05\x14'
p692
tp693
Rp694
ag35
(S'\x07\xdf\x06\x03'
p695
tp696
Rp697
ag35
(S'\x07\xdf\x06\x08'
p698
tp699
Rp700
ag35
(S'\x07\xdf\x06\x18'
p701
tp702
Rp703
ag35
(S'\x07\xdf\x06\x1e'
p704
tp705
Rp706
asg117
(lp707
(lp708
F695.851757757
aF687.124969586
aF869.353811663
aF859.234567476
aF1043.15727321
aF1683.74449568
aF1117.3754347
aF1196.28482718
aF1343.31756984
aF1479.58447947
aF1462.81960112
aF1642.07819
aa(lp709
F648.878453253
aF640.471819895
aF810.988091757
aF801.246119949
aF973.500737447
aF1572.53217883
aF1042.44967086
aF1116.67982187
aF1254.12269293
aF1381.98208589
aF1366.44552875
aF1534.87482363
aa(lp710
F703.594988685
aF694.81788304
aF878.973089801
aF868.794374373
aF1054.63520025
aF1702.06637826
aF1129.7249941
aF1209.40080686
aF1358.01320381
aF1495.66108131
aF1478.69265812
aF1659.72846287
aa(lp711
F692.003873149
aF683.302343091
aF864.573459164
aF854.484048684
aF1037.45303314
aF1674.63864165
aF1111.23836553
aF1189.7663924
aF1336.01403499
aF1471.59418945
aF1454.93034918
aF1633.30497171
aa(lp712
F741.247170705
aF732.234896056
aF925.740620315
aF915.283218525
aF1110.43108934
aF1791.12010004
aF1189.77122222
aF1273.15506342
aF1429.44468364
aF1573.78909597
aF1555.82674272
aF1745.4747536
aa(lp713
F703.594988685
aF694.81788304
aF878.973089801
aF868.794374373
aF1054.63520025
aF1702.06637826
aF1129.7249941
aF1209.40080686
aF1358.01320381
aF1495.66108131
aF1478.69265812
aF1659.72846287
aa(lp714
F678.660285009
aF670.047663654
aF847.995264847
aF838.010770121
aF1017.66964168
aF1643.05595244
aF1089.95565646
aF1167.15856024
aF1310.68304074
aF1443.8790423
aF1427.56500618
aF1602.87001027
aass(S'seirepi_mag'
p715
I7000
I01
tp716
(dp717
g4
(lp718
(lp719
F585837.1326948497
aF962.894488839641
aF690.6930594171557
aF830.6126899019417
aF869.5354106931051
aF1675.762004579994
aF1059.908953264345
aF1605.4626969323733
aF1454.2671623471765
aF1375.0891573338754
aF1691.9432317305113
aF1898.035593619011
aa(lp720
F655.7578253797719
aF664.796014222733
aF753.2068312335366
aF859.7051035168688
aF929.021708774751
aF1833.0152942284049
aF1161.5122522981528
aF1303.48443104479
aF1609.2982981921755
aF1593.9891735877075
aF1583.2328356871642
aF1785.931558615463
aa(lp721
F571.7691683432117
aF526.7496237386781
aF727.4076139856019
aF826.2725806099096
aF862.8397426549998
aF1705.6237715506777
aF1106.0236230314295
aF1161.0504720241515
aF1402.3604360427646
aF1469.2478514547397
aF1471.8697429778827
aF1501.8045210455662
aa(lp722
F696.5788603099969
aF711.922528874601
aF784.884035130807
aF914.9322798050962
aF968.0205734484155
aF1668.97895114817
aF1243.971390938602
aF1368.167486204191
aF1593.919728508189
aF1627.8792511811896
aF1736.181447265453
aF680.5163171896296
aasg33
(lp723
g573
ag576
ag579
ag582
asg117
(lp724
(lp725
F692.003873149
aF683.302343091
aF864.573459164
aF854.484048684
aF1037.45303314
aF1674.63864165
aF1111.23836553
aF1189.7663924
aF1336.01403499
aF1471.59418945
aF1454.93034918
aF1633.30497171
aa(lp726
F741.247170705
aF732.234896056
aF925.740620315
aF915.283218525
aF1110.43108934
aF1791.12010004
aF1189.77122222
aF1273.15506342
aF1429.44468364
aF1573.78909597
aF1555.82674272
aF1745.4747536
aa(lp727
F703.594988685
aF694.81788304
aF878.973089801
aF868.794374373
aF1054.63520025
aF1702.06637826
aF1129.7249941
aF1209.40080686
aF1358.01320381
aF1495.66108131
aF1478.69265812
aF1659.72846287
aa(lp728
F678.660285009
aF670.047663654
aF847.995264847
aF838.010770121
aF1017.66964168
aF1643.05595244
aF1089.95565646
aF1167.15856024
aF1310.68304074
aF1443.8790423
aF1427.56500618
aF1602.87001027
aass(S'orig_spgr_mag'
p729
F14.0
I01
tp730
(dp731
g4
(lp732
(lp733
F641.2662730249854
aF688.1616977260761
aF656.2441474905548
aF831.1280179189491
aF879.3526243098922
aF1790.2654188928063
aF1179.2171237509422
aF1363.2842778044323
aF1672.0948368962995
aF1875.0480706490746
aF1801.378878818288
aF2221.977639511405
aa(lp734
F601.8781129537542
aF637.0350127187697
aF609.0662493685963
aF785.4564604271658
aF803.4233738161488
aF1800.203025513409
aF1089.337000564997
aF1394.9012441007214
aF1571.0305907561815
aF1775.9440268150283
aF1763.8570989059479
aF2178.4517273997444
aa(lp735
F607.2085661901416
aF752.9578979559876
aF1105.420684909642
aF864.1489028278476
aF908.3409827500594
aF1957.3766468652027
aF1247.5246330254665
aF1350.4507624868982
aF1785.7987527214332
aF1669.6472219678158
aF1826.7611977537088
aF2101.883309000476
aa(lp736
F613.8300653512891
aF955940.8240424572
aF775.4233441749795
aF833.6414185689931
aF794.9744760320791
aF1796.0872130539199
aF1169.9230172692628
aF1312.4218931265582
aF1706.3489279003256
aF1654.1788292765182
aF3810163.839092853
aF3696621.295893862
aa(lp737
F698.5045006559532
aF750.2137847227704
aF722.2831496428521
aF922.1132752951664
aF975.5686596665427
aF2065.2538918833716
aF1277.902262797486
aF1598.350220268191
aF1924.8607864879687
aF2078.273345561442
aF2011.589466718664
aF2406.6571848326835
aa(lp738
F637.583656124092
aF747.2507590678842
aF683.9620927912329
aF868.9499707228189
aF947.2936852871198
aF1951.5728536612576
aF1241.6822524244092
aF1357.4090251928378
aF1707.2832768855267
aF1810.5313934934218
aF1811.0907874630486
aF2202.9788188441903
aa(lp739
F763.760568219623
aF802.2861509619846
aF784.5662668201206
aF993.8623274112263
aF1033.2909879359424
aF2190.575683489958
aF1415.7087404703793
aF1723.982656282763
aF1972.2298641554582
aF2217.302785937436
aF2185.3307304202576
aF688.6852852799059
aasg33
(lp740
g688
ag691
ag694
ag697
ag700
ag703
ag706
asg117
(lp741
(lp742
F695.851757757
aF687.124969586
aF869.353811663
aF859.234567476
aF1043.15727321
aF1683.74449568
aF1117.3754347
aF1196.28482718
aF1343.31756984
aF1479.58447947
aF1462.81960112
aF1642.07819
aa(lp743
F648.878453253
aF640.471819895
aF810.988091757
aF801.246119949
aF973.500737447
aF1572.53217883
aF1042.44967086
aF1116.67982187
aF1254.12269293
aF1381.98208589
aF1366.44552875
aF1534.87482363
aa(lp744
F703.594988685
aF694.81788304
aF878.973089801
aF868.794374373
aF1054.63520025
aF1702.06637826
aF1129.7249941
aF1209.40080686
aF1358.01320381
aF1495.66108131
aF1478.69265812
aF1659.72846287
aa(lp745
F692.003873149
aF683.302343091
aF864.573459164
aF854.484048684
aF1037.45303314
aF1674.63864165
aF1111.23836553
aF1189.7663924
aF1336.01403499
aF1471.59418945
aF1454.93034918
aF1633.30497171
aa(lp746
F741.247170705
aF732.234896056
aF925.740620315
aF915.283218525
aF1110.43108934
aF1791.12010004
aF1189.77122222
aF1273.15506342
aF1429.44468364
aF1573.78909597
aF1555.82674272
aF1745.4747536
aa(lp747
F703.594988685
aF694.81788304
aF878.973089801
aF868.794374373
aF1054.63520025
aF1702.06637826
aF1129.7249941
aF1209.40080686
aF1358.01320381
aF1495.66108131
aF1478.69265812
aF1659.72846287
aa(lp748
F678.660285009
aF670.047663654
aF847.995264847
aF838.010770121
aF1017.66964168
aF1643.05595244
aF1089.95565646
aF1167.15856024
aF1310.68304074
aF1443.8790423
aF1427.56500618
aF1602.87001027
aass(S'seirepi_mag'
p749
I6630
I01
tp750
(dp751
g4
(lp752
(lp753
F630.5424403879465
aF642.5532243913428
aF683.5634501423307
aF801.39001737322
aF908.0433524259623
aF1655.314304488254
aF1083.6868263310894
aF1197.3280052681234
aF1417.4325633358142
aF1567.9002602797132
aF1499.6152149730804
aF1778.9705694662073
aa(lp754
F580.6033771957264
aF594.4456417872731
aF641.0234885254649
aF742.5117737976971
aF832.0033649592824
aF1633.7949562930803
aF1016.0994492490308
aF1177.871212698459
aF1358.2689503753763
aF1483.6754791881945
aF1433.570451105742
aF1718.4566417065191
aa(lp755
F650.4562985492715
aF635.888033666979
aF739.0430404355453
aF830.1626324094077
aF854.2087091450412
aF1828.3128029342495
aF1140.3510102025798
aF1215.2680804414174
aF1521.6537691257038
aF1470.1131019122786
aF1519.3108633644542
aF1528.5398400372962
aasg33
(lp756
g156
ag159
ag162
asg117
(lp757
(lp758
F695.851757757
aF687.124969586
aF869.353811663
aF859.234567476
aF1043.15727321
aF1683.74449568
aF1117.3754347
aF1196.28482718
aF1343.31756984
aF1479.58447947
aF1462.81960112
aF1642.07819
aa(lp759
F648.878453253
aF640.471819895
aF810.988091757
aF801.246119949
aF973.500737447
aF1572.53217883
aF1042.44967086
aF1116.67982187
aF1254.12269293
aF1381.98208589
aF1366.44552875
aF1534.87482363
aa(lp760
F703.594988685
aF694.81788304
aF878.973089801
aF868.794374373
aF1054.63520025
aF1702.06637826
aF1129.7249941
aF1209.40080686
aF1358.01320381
aF1495.66108131
aF1478.69265812
aF1659.72846287
aass(S'seir_real'
p761
I3500
I00
tp762
(dp763
g4
(lp764
(lp765
F678.7628868878844
aF539.9162593611055
aF713.5163666902371
aF815.8153130366214
aF542.919481911338
aF1039.5498922091656
aF750.7947640375327
aF921.469209329041
aF990.7036418937246
aF780.9945356939223
aF1006.6388967805831
aF969.3717698424196
aasg33
(lp766
g323
asg117
(lp767
(lp768
F681.503430096
aF672.871691943
aF851.527748393
aF841.520707831
aF1021.88524307
aF1649.78609004
aF1094.4905068
aF1171.97610304
aF1316.08089505
aF1449.78524072
aF1433.39674603
aF1609.35635598
aass(S'seirepi_mag'
p769
I7000
I00
tp770
(dp771
g4
(lp772
(lp773
F633294.75368533
aF982.2932681128524
aF809.6721305403478
aF873.2759440104221
aF949.3768199033536
aF1712.6587697835675
aF1057.2455161710714
aF1506.5754368487637
aF1300.7181301039323
aF1269.127164984575
aF1598.911424939154
aF1637.8919103066003
aa(lp774
F691.3780673118567
aF688.6094694017316
aF868.186641408423
aF885.279499338479
aF1015.0979263317801
aF1785.5073451944522
aF1148.6869365926802
aF1195.4285023481993
aF1392.8707129813745
aF1391.8546863489926
aF1450.625088546396
aF1537.5725242260335
aa(lp775
F595.0945624852737
aF557.7073790705706
aF841.1250067472598
aF838.48307662351
aF954.9375524189915
aF1686.6716547135877
aF1080.8733990096443
aF1148.8223076999202
aF1315.3690723038826
aF1323.1961363995313
aF1381.9380624134694
aF1343.0796870980446
aa(lp776
F724.8872806961045
aF728.4567618150965
aF905.9896587189181
aF947.9596488178377
aF1069.012974363111
aF1669.660921303793
aF1211.33942086034
aF1247.2183983836937
aF1440.9462128402101
aF1437.4441540465994
aF1505.2551859254156
aF413.9927844838541
aasg33
(lp777
g573
ag576
ag579
ag582
asg117
(lp778
(lp779
F692.003873149
aF683.302343091
aF864.573459164
aF854.484048684
aF1037.45303314
aF1674.63864165
aF1111.23836553
aF1189.7663924
aF1336.01403499
aF1471.59418945
aF1454.93034918
aF1633.30497171
aa(lp780
F741.247170705
aF732.234896056
aF925.740620315
aF915.283218525
aF1110.43108934
aF1791.12010004
aF1189.77122222
aF1273.15506342
aF1429.44468364
aF1573.78909597
aF1555.82674272
aF1745.4747536
aa(lp781
F703.594988685
aF694.81788304
aF878.973089801
aF868.794374373
aF1054.63520025
aF1702.06637826
aF1129.7249941
aF1209.40080686
aF1358.01320381
aF1495.66108131
aF1478.69265812
aF1659.72846287
aa(lp782
F678.660285009
aF670.047663654
aF847.995264847
aF838.010770121
aF1017.66964168
aF1643.05595244
aF1089.95565646
aF1167.15856024
aF1310.68304074
aF1443.8790423
aF1427.56500618
aF1602.87001027
aass(S'seir_mag'
p783
I4000
I00
tp784
(dp785
g4
(lp786
(lp787
F675.1615154230203
aF668.604988290385
aF864.5068014802183
aF839.6211207932254
aF1034.8310434385799
aF1733.9306744663102
aF1108.7212885697509
aF1191.0390518761474
aF1366.753842969859
aF1524.0861884637475
aF1504.5151513251794
aF1654.3938265120287
aa(lp788
F683.4392178197487
aF651.1102138389929
aF854.7698932480964
aF827.6241991459665
aF1019.9623837825317
aF1689.1299841855684
aF1112.2518775315973
aF1185.3791068366943
aF1338.4226795732818
aF1477.8365281993997
aF1456.067625137241
aF1486.8100185164858
aa(lp789
F917.6879154095157
aF949.7727381105233
aF989.2399340634877
aF1101.0730929374683
aF1217.7354982753318
aF1877.035028373399
aF1255.401292007142
aF947.9672088430572
aF1289.8776824177846
aF1566.8293856237171
aF1027.9275915185897
aF1389.9382226714197
aa(lp790
F742.4341128184326
aF746.319560643327
aF956.4900126999271
aF932.9099396743974
aF1151.851110913508
aF1895.6644411056513
aF1228.8044132260234
aF1323.4997722953724
aF1500.1924239413354
aF1653.863715387484
aF1622.0523148926973
aF652.3468432565244
aa(lp791
F726.54128088394
aF716.9274443562405
aF909.0211602825026
aF910.5303741067452
aF1113.2625120296736
aF1890.9396012287589
aF1203.3241383875993
aF1270.9313597952123
aF1496.4694555848037
aF1642.1065256647464
aF1566.1143866275593
aF1821.2907529641755
aa(lp792
F702.2762859066646
aF679.5870723197726
aF880.1459220974657
aF861.6246696959233
aF1061.5228558531567
aF1811.4427786424963
aF1137.8207831630452
aF1233.3619933598668
aF1404.4944384760106
aF1556.9462083372437
aF1506.4662598020193
aF1713.2086269170104
aa(lp793
F692.7363585379865
aF666.9015550336037
aF873.328658638476
aF847.9394716030768
aF1028.3612897068203
aF1739.3950701796534
aF1115.7628263551164
aF1184.1890695954694
aF1369.6781488668278
aF1554.4308483702837
aF1445.6280023339912
aF1729.3399866465888
aa(lp794
F674.290467798624
aF668.0939419493612
aF860.4665302872571
aF841.0572463691011
aF1027.2832276388447
aF1745.6540290122582
aF1113.1020853218424
aF1189.8707285498938
aF1374.1346092007439
aF1532.087169996557
aF1496.37046220085
aF1032.663330185931
aa(lp795
F679.8290204999922
aF696.5050464388844
aF853.3755556175645
aF863.5563229761777
aF1066.5957085410648
aF1815.3457801071136
aF1114.3941592018361
aF1216.1699462140723
aF1412.8779768427542
aF1529.7737058146147
aF1491.3075434012326
aF1722.213604034742
aa(lp796
F664.9158549441164
aF675.9198091041358
aF840.1170805232513
aF827.9382343923545
aF1024.182088178105
aF1679.0814340164955
aF1106.5846766969587
aF1185.7979776392908
aF1356.553128117308
aF1506.7846270510136
aF1443.7298771061699
aF1636.860711717086
aa(lp797
F688.312432134579
aF657.4324109543362
aF851.6404133519568
aF834.8947563885016
aF1018.1017699586404
aF1764.5599197003703
aF1085.310824295543
aF1179.3016000797234
aF1376.8327753594795
aF1500.5586771221822
aF1463.6412252897876
aF1661.3344081955895
aa(lp798
F649.4433850743883
aF658.2310299232076
aF830.5863603083309
aF822.9963453489512
aF998.0410838134595
aF1672.2133383451373
aF1102.1143425781922
aF1149.8806268703222
aF1355.3116774629345
aF1458.2022565538086
aF1401.311188280393
aF1660.2928940011504
aa(lp799
F690.2001785273831
aF655.0444781918103
aF849.7134611524566
aF833.6314638484789
aF1024.180426309601
aF1789.2691394214114
aF1070.2994701604337
aF1179.6776344726416
aF1382.2701401372447
aF1518.4276984475177
aF1472.1904807218336
aF1681.9381264553986
aa(lp800
F659.3466905088206
aF668.3795636421664
aF827.762450902128
aF832.2931281049009
aF1016.8671887087601
aF1747.8509916511173
aF1101.974862414154
aF1172.896596021905
aF1359.2972566851192
aF1453.3054454116855
aF1445.0155979418348
aF1461.1609210473036
aa(lp801
F689.4775372677427
aF685.1795509429949
aF867.3915497665782
aF843.1935188387733
aF1046.8940625167263
aF1702.177055379116
aF1121.879611872364
aF1200.723295061179
aF1389.2336788193827
aF1533.470952554988
aF1467.64956857215
aF1073.1993666441742
aa(lp802
F664.3660424013157
aF642.7284376203589
aF829.7614285917333
aF804.8088230032491
aF983.2152308272018
aF1647.517838689589
aF1088.108025588087
aF1149.7925200505624
aF1340.2995826492618
aF1451.3079897413636
aF1425.2872535386027
aF1627.980473903425
aa(lp803
F693.9074208260784
aF684.1223707742756
aF879.852664610301
aF858.4479729229238
aF1054.262376883499
aF1794.255931661517
aF1137.29554828743
aF1211.396897815574
aF1404.4973684082997
aF1562.4935355853154
aF1507.958555046407
aF1065.0093684174901
aa(lp804
F636.7132697875704
aF638.3524954557101
aF810.0414117228814
aF793.202659757316
aF988.3316330647631
aF1618.5690197601073
aF1076.4424434216994
aF1145.2488197176406
aF1316.2709871388304
aF1459.823369469321
aF1395.8926631479346
aF1639.502953348427
aa(lp805
F644.0795604982397
aF647.6236866068365
aF804.465557913921
aF804.0770028148979
aF997.6967441590888
aF1657.911677770876
aF1062.6815390249221
aF1149.3565552778484
aF1320.6834344959188
aF1451.9838983513278
aF1434.503466895164
aF1438.2244249358805
aa(lp806
F668.3966892746641
aF664.7665259960786
aF841.6573468857275
aF828.2503721851864
aF1027.9407836276878
aF1760.6011476674973
aF1067.2069423487765
aF1155.4548479787957
aF1353.2340285947494
aF1503.527885309956
aF1444.7718402954692
aF1656.653966966721
aa(lp807
F637.649637838829
aF643.8970110195172
aF811.2708655847725
aF805.1082468209123
aF967.758151262941
aF1615.9879706773581
aF1070.8635173081454
aF1120.088603617962
aF1321.1052518128781
aF1449.4909296816013
aF1376.5164256222542
aF1626.705435253169
aa(lp808
F662.5590732622002
aF649.3333209518379
aF822.2198936297254
aF816.0798346171663
aF1001.3317751850208
aF1695.2591349968625
aF1074.1794566392095
aF1144.3267194382202
aF1341.3938915829867
aF1479.973235967084
aF1428.204520633436
aF1572.980185229932
aa(lp809
F636.5179557491456
aF627.0563475642136
aF802.5151211323099
aF805.8889858818656
aF947.6274585444316
aF1627.4433175981424
aF1047.7646864895469
aF1111.6591401564385
aF1299.4561031785506
aF1419.7597937200042
aF1370.247020916184
aF1609.235617452501
aa(lp810
F672.1850666195012
aF654.0162820827102
aF833.1875392369674
aF823.0904084549554
aF1006.9825887397085
aF1713.2431883314416
aF1102.847230997801
aF1160.3265229268568
aF1347.868119541777
aF1470.1533457570602
aF1437.6790387259514
aF1563.9151598146354
aa(lp811
F637.3387830672069
aF629.507236043102
aF798.4148246656746
aF801.1235203669937
aF961.2697104070692
aF1651.7343962574193
aF1012.7872747708947
aF1127.3886796915685
aF1280.7559075114357
aF1402.8099366057363
aF1375.0742144867572
aF1567.9014884463577
aa(lp812
F654.4338393951806
aF629.5223452910395
aF818.1619118635014
aF788.7004307063407
aF967.1258317979871
aF1636.097205989407
aF1061.483900393646
aF1141.0785276977101
aF1297.4016156874409
aF1423.0861246032518
aF1380.788216829972
aF1588.1516654393324
aa(lp813
F712.8955796960827
aF692.9033677381912
aF894.7536484954239
aF869.3232051980957
aF1055.7489550987011
aF1818.1035309753167
aF1135.129754995408
aF1218.793613399058
aF1409.409676519334
aF1546.5360815120953
aF1487.4377857251732
aF1702.6938900112714
aa(lp814
F633.5922095887704
aF637.0318460955119
aF813.1471607578615
aF802.2077456444645
aF994.2252338688853
aF1665.5209909699097
aF1065.9682975069047
aF1141.7193492900203
aF1301.0262948407872
aF1438.5961988124986
aF1402.0440457668083
aF1571.581687508005
aa(lp815
F710.2310450331277
aF693.4862062049697
aF898.5094594905689
aF878.4413049713386
aF1063.7984979356143
aF1787.917266478578
aF1167.1802403143818
aF1237.6563092031802
aF1425.8949209096095
aF1547.6745032000301
aF1504.417823857945
aF1739.345850190058
aa(lp816
F678.1362190620791
aF693.4059143982952
aF864.3919848870755
aF858.0793084854752
aF1064.6260215985862
aF1773.4071770435257
aF1145.1122461032894
aF1235.043676288112
aF1431.6419609290174
aF1511.8759960104212
aF1533.7365993432675
aF1673.7387228360358
aa(lp817
F753.1856063028904
aF736.5125013745504
aF926.7530525156212
aF918.3698158428275
aF1136.0843464257403
aF1917.5380260274237
aF1201.5093080488602
aF1306.020319806023
aF1509.317563544107
aF1666.6768373303942
aF1606.8028193721423
aF1797.6467715765652
aa(lp818
F712.0397369026801
aF695.7479826544964
aF894.8755856759823
aF874.7884149198716
aF1073.678994985106
aF1783.6471749097288
aF1167.2416857611083
aF1227.1272065827898
aF1445.0905742255768
aF1610.8967272511256
aF1498.6815648596087
aF1786.3428474263787
aa(lp819
F750.422865690555
aF778.2284106315165
aF963.5403597471786
aF961.5821938498417
aF1187.1387988834265
aF1995.7873579822501
aF1283.8560330398482
aF1364.2836144004768
aF1590.234074107147
aF1707.0097402141305
aF1665.4359746688774
aF985.3485016988384
aasg33
(lp820
g431
ag434
ag437
ag440
ag443
ag446
ag449
ag452
ag455
ag458
ag461
ag464
ag467
ag470
ag473
ag476
ag479
ag482
ag485
ag488
ag491
ag494
ag497
ag500
ag503
ag506
ag509
ag512
ag515
ag518
ag521
ag524
ag527
asg117
(lp821
(lp822
F694.888305806
aF686.16782602
aF868.156896067
aF858.045104247
aF1041.72904647
aF1681.46459502
aF1115.8388144
aF1194.6527503
aF1341.48892303
aF1477.58391118
aF1460.84433813
aF1639.88164576
aa(lp823
F685.308014199
aF676.650841587
aF856.254663335
aF846.217615353
aF1027.52612575
aF1658.79145196
aF1100.55877713
aF1178.42236703
aF1323.30363872
aF1457.68793404
aF1441.19973825
aF1618.03484218
aa(lp824
F724.223816568
aF715.315938921
aF904.597445183
aF894.263915063
aF1085.2078999
aF1750.86454238
aF1162.62392764
aF1244.33507908
aF1397.15443909
aF1538.47492993
aF1520.96280415
aF1706.72301217
aa(lp825
F743.269097659
aF734.244631098
aF928.251723347
aF917.779837998
aF1113.4265903
aF1795.90062253
aF1192.99552078
aF1276.57762786
aF1433.2793453
aF1577.98252448
aF1559.96660383
aF1750.07575045
aa(lp826
F737.215456766
aF728.227623632
aF920.733397164
aF910.305019894
aF1104.45785322
aF1781.58727342
aF1183.34193174
aF1266.33017645
aF1421.79802817
aF1565.42681282
aF1547.57121451
aF1736.29932557
aa(lp827
F688.171763942
aF679.495556964
aF859.812575253
aF849.753062529
aF1031.77187576
aF1665.56940249
aF1105.12636279
aF1183.2742516
aF1328.73993543
aF1463.63581386
aF1447.07252416
aF1624.56626655
aa(lp828
F673.000399932
aF664.426115732
aF840.962884496
aF831.023583168
aF1009.27707456
aF1629.6569413
aF1080.92790262
aF1157.5674829
aF1299.93659349
aF1432.12005854
aF1415.95412658
aF1589.95508825
aa(lp829
F673.941272768
aF665.360589553
aF842.131935005
aF832.18509213
aF1010.6722636
aF1631.88444587
aF1082.42865012
aF1159.16192695
aF1301.72311358
aF1434.07495082
aF1417.88440995
aF1592.10223402
aa(lp830
F689.128314157
aF680.445770371
aF861.000973344
aF850.933980231
aF1033.19000382
aF1667.83328415
aF1106.65201654
aF1184.89482486
aF1330.5557043
aF1465.6224196
aF1449.03403787
aF1626.7477113
aa(lp831
F677.714527699
aF669.108286331
aF846.820186367
aF836.843214507
aF1016.26730573
aF1640.81711564
aF1088.44714976
aF1165.55597551
aF1308.88740835
aF1441.91426967
aF1425.62499278
aF1600.71217814
aa(lp832
F666.441567926
aF657.912181296
aF832.813194785
aF822.926786715
aF999.550663865
aF1614.1276883
aF1070.46599894
aF1146.45183625
aF1287.48183906
aF1418.49098885
aF1402.49648087
aF1574.98474783
aa(lp833
F654.387036172
aF645.941502207
aF817.833747879
aF808.046031483
aF981.671920339
aF1585.58025929
aF1051.23711925
aF1126.01874211
aF1264.58690822
aF1393.43503368
aF1377.75501366
aF1547.45870647
aa(lp834
F666.441567926
aF657.912181296
aF832.813194785
aF822.926786715
aF999.550663865
aF1614.1276883
aF1070.46599894
aF1146.45183625
aF1287.48183906
aF1418.49098885
aF1402.49648087
aF1574.98474783
aa(lp835
F663.645223431
aF655.135133761
aF829.338468295
aF819.474782775
aF995.403540555
aF1607.50612215
aF1066.00548954
aF1141.7122925
aF1282.17129147
aF1412.67945724
aF1396.75796884
aF1568.60079467
aa(lp836
F671.121579576
aF662.560104673
aF838.628393636
aF828.704186455
aF1006.49097676
aF1625.20871856
aF1077.93105437
aF1154.38347021
aF1296.3690105
aF1428.21619121
aF1412.09938713
aF1585.66719684
aa(lp837
F639.774319866
aF631.432789225
aF799.673493196
aF790.00802345
aF959.994530076
aF1550.9635351
aF1027.92593294
aF1101.24300705
aF1236.82564563
aF1363.04924962
aF1347.74945023
aF1514.06981932
aa(lp838
F674.883121426
aF666.296042972
aF843.302189785
aF833.347809067
aF1012.06888045
aF1634.11421428
aF1083.93094771
aF1160.75799733
aF1303.51145409
aF1436.03181697
aF1419.81663719
aF1594.25151473
aa(lp839
F637.96497955
aF629.636508645
aF797.424749247
aF787.774617961
aF957.310095791
aF1546.67643577
aF1025.03942286
aF1098.17478621
aF1233.38765867
aF1359.28591402
aF1344.03311583
aF1509.93395358
aa(lp840
F637.96497955
aF629.636508645
aF797.424749247
aF787.774617961
aF957.310095791
aF1546.67643577
aF1025.03942286
aF1098.17478621
aF1233.38765867
aF1359.28591402
aF1344.03311583
aF1509.93395358
aa(lp841
F659.004039957
aF650.526183922
aF823.571187797
aF813.745443649
aF988.520040645
aF1596.51515252
aF1058.60210409
aF1133.84536891
aF1273.35654899
aF1403.03279213
aF1387.23240833
aF1558.00329823
aa(lp842
F634.35775019
aF626.055437006
aF792.941393904
aF783.321976593
aF951.957983238
aF1538.12878272
aF1019.28458331
aF1092.0574281
aF1226.53304118
aF1351.78240336
aF1336.62325878
aF1501.6872816
aa(lp843
F642.495499733
aF634.134403725
aF803.055457168
aF793.367003241
aF964.031672019
aF1557.41080458
aF1032.26708094
aF1105.85728615
aF1241.99599706
aF1368.70875338
aF1353.33823362
aF1520.28930672
aa(lp844
F622.739316795
aF614.52235813
aF778.500152213
aF768.980885758
aF934.71735119
aF1510.59243343
aF1000.74814354
aF1072.35110032
aF1204.45146682
aF1327.60848459
aF1312.7505189
aF1475.11552536
aa(lp845
F650.710796922
aF642.29118304
aF813.265224961
aF803.507991654
aF976.218830796
aF1576.87261023
aF1045.37270568
aF1119.78637809
aF1257.60358265
aF1385.79194693
aF1370.20768656
aF1539.06102569
aa(lp846
F621.852223492
aF613.641851604
aF777.397472908
aF767.88593065
aF933.400853763
aF1508.48962438
aF999.332791839
aF1070.84628179
aF1202.76525264
aF1325.7623665
aF1310.927367
aF1473.08605988
aa(lp847
F629.870139273
aF621.600593744
aF787.363642426
aF777.782685793
aF945.299193972
aF1527.4938813
aF1012.12504895
aF1084.44643656
aF1218.00472724
aF1342.44634926
aF1327.40361964
aF1491.42583056
aa(lp848
F695.851757757
aF687.124969586
aF869.353811663
aF859.234567476
aF1043.15727321
aF1683.74449568
aF1117.3754347
aF1196.28482718
aF1343.31756984
aF1479.58447947
aF1462.81960112
aF1642.07819
aa(lp849
F648.878453253
aF640.471819895
aF810.988091757
aF801.246119949
aF973.500737447
aF1572.53217883
aF1042.44967086
aF1116.67982187
aF1254.12269293
aF1381.98208589
aF1366.44552875
aF1534.87482363
aa(lp850
F703.594988685
aF694.81788304
aF878.973089801
aF868.794374373
aF1054.63520025
aF1702.06637826
aF1129.7249941
aF1209.40080686
aF1358.01320381
aF1495.66108131
aF1478.69265812
aF1659.72846287
aa(lp851
F692.003873149
aF683.302343091
aF864.573459164
aF854.484048684
aF1037.45303314
aF1674.63864165
aF1111.23836553
aF1189.7663924
aF1336.01403499
aF1471.59418945
aF1454.93034918
aF1633.30497171
aa(lp852
F741.247170705
aF732.234896056
aF925.740620315
aF915.283218525
aF1110.43108934
aF1791.12010004
aF1189.77122222
aF1273.15506342
aF1429.44468364
aF1573.78909597
aF1555.82674272
aF1745.4747536
aa(lp853
F703.594988685
aF694.81788304
aF878.973089801
aF868.794374373
aF1054.63520025
aF1702.06637826
aF1129.7249941
aF1209.40080686
aF1358.01320381
aF1495.66108131
aF1478.69265812
aF1659.72846287
aa(lp854
F678.660285009
aF670.047663654
aF847.995264847
aF838.010770121
aF1017.66964168
aF1643.05595244
aF1089.95565646
aF1167.15856024
aF1310.68304074
aF1443.8790423
aF1427.56500618
aF1602.87001027
aass(S'seirepi_mag'
p855
I6630
I00
tp856
(dp857
g4
(lp858
(lp859
F668.971887004212
aF674.7904901282213
aF826.7520732538607
aF847.0568661652597
aF1008.3153689808491
aF1730.8930122022693
aF1102.8323302204367
aF1185.0506180394136
aF1312.5692289836952
aF1407.191519826627
aF1434.6115757982582
aF1589.2926230247035
aa(lp860
F616.3991318909199
aF624.5018529616997
aF764.1094964969798
aF768.3823619573016
aF940.7608876868477
aF1590.6940513681166
aF1020.9838939587987
aF1081.7977464145436
aF1233.287081224222
aF1310.647054019946
aF1320.2081801410839
aF1472.054215459834
aa(lp861
F678.7014889143661
aF674.4745014554998
aF847.2819664038939
aF848.1807421807081
aF927.0542840124093
aF1742.247956414692
aF1095.327023723142
aF1167.265517994264
aF1343.2428127485277
aF1297.5580990919912
aF1415.8068502820531
aF1350.8938225430657
aasg33
(lp862
g156
ag159
ag162
asg117
(lp863
(lp864
F695.851757757
aF687.124969586
aF869.353811663
aF859.234567476
aF1043.15727321
aF1683.74449568
aF1117.3754347
aF1196.28482718
aF1343.31756984
aF1479.58447947
aF1462.81960112
aF1642.07819
aa(lp865
F648.878453253
aF640.471819895
aF810.988091757
aF801.246119949
aF973.500737447
aF1572.53217883
aF1042.44967086
aF1116.67982187
aF1254.12269293
aF1381.98208589
aF1366.44552875
aF1534.87482363
aa(lp866
F703.594988685
aF694.81788304
aF878.973089801
aF868.794374373
aF1054.63520025
aF1702.06637826
aF1129.7249941
aF1209.40080686
aF1358.01320381
aF1495.66108131
aF1478.69265812
aF1659.72846287
aass(g761
I3500
I01
tp867
(dp868
g4
(lp869
(lp870
F490.9392794192008
aF712.1688295751579
aF406.07025659785626
aF664.0824458400626
aF1227.823909130139
aF802.4472563070061
aF1156.7464031240224
aF630.7645700464047
aF1273.6886802768367
aF1163.6595369398606
aF1143.5184721672433
aF1412.9513712123205
aasg33
(lp871
g323
asg117
(lp872
(lp873
F681.503430096
aF672.871691943
aF851.527748393
aF841.520707831
aF1021.88524307
aF1649.78609004
aF1094.4905068
aF1171.97610304
aF1316.08089505
aF1449.78524072
aF1433.39674603
aF1609.35635598
aass(S'orig_spgr_mag'
p874
F5.6
I01
tp875
(dp876
g4
(lp877
(lp878
F657.8656148589694
aF640.3354459880165
aF648.9767142033471
aF800.1877084221813
aF840.855679926185
aF1598.9161213834227
aF1080.3271875041385
aF1238.594265679445
aF1456.2311803351847
aF1711.111826779428
aF1679.2834022086952
aF1979.959717742641
aa(lp879
F616.12049446336
aF614.4411994982511
aF601.826062666181
aF761.5038441412603
aF803.526862146673
aF1549.5961794341388
aF1035.616407775074
aF1265.6750536588065
aF1459.8687844894262
aF1638.1147267532065
aF1630.941128141996
aF1840.0389802884074
aa(lp880
F677.6226602317498
aF638.5716851563006
aF660.0868614688131
aF795.6493310517097
aF841.7266123120665
aF1525.5928035365487
aF1056.7511319923556
aF1248.5816884314722
aF1536.1202876557145
aF1705.1429443576562
aF1672.8019093131588
aF2003.1563292231333
aa(lp881
F720.2819640996307
aF690.2545247261538
aF684.5721369831682
aF890.1852706306784
aF889.3602379903506
aF1792.630603552244
aF1197.8340729254016
aF1430.5962289752204
aF1672.5222415184069
aF1876.9560223053033
aF1888.538523827678
aF512.735052545437
aa(lp882
F714.7406681163143
aF695.7556356062171
aF714.3685197673716
aF869.9240399407903
aF911.1822040842327
aF1786.3499022152628
aF1178.9379781311013
aF1286.7476027907621
aF1556.354766454041
aF1792.4573342707813
aF1732.2384346467284
aF2070.1852531243703
aa(lp883
F650.1336385690391
aF649.4140810688463
aF634.8080299744067
aF819.009008817494
aF856.6918799488033
aF1656.0625502883902
aF1102.737669048856
aF1337.4912695766998
aF1532.3001152494685
aF1753.5644018797848
aF1769.5513479739825
aF2060.9517580816146
aa(lp884
F608.1262845355307
aF614.1710621698134
aF598.3489524979107
aF764.050097217356
aF780.0698006384279
aF1512.7974372238682
aF1001.804590555343
aF1228.5002694031077
aF1414.59381006159
aF1566.013943449473
aF1602.0149973616049
aF1896.3731309795485
aa(lp885
F754.7656489184978
aF615.6665011940353
aF673.2533374503458
aF807.434426593808
aF807.8585158595783
aF1524.5672255885438
aF1071.8226001887442
aF1314.9319322439255
aF1513.401470075881
aF1834.4390001555093
aF1803.8332243808477
aF2209.1292463055347
aa(lp886
F637.9060389869663
aF622.1914486447249
aF619.0140597249369
aF770.8762017124601
aF814.5945432019997
aF1570.120358145737
aF1049.1268954606703
aF1301.6628468817007
aF1475.408045735216
aF1723.0700962641858
aF1671.6337564312785
aF1243.2552518574867
aa(lp887
F653.9627196969109
aF624.4509779993053
aF628.9960951945689
aF781.4277356953797
aF841.9347352665193
aF1637.363668326995
aF1083.1077406414813
aF1265.4746434523854
aF1515.9798674259657
aF1722.7889625178013
aF1622.8626538666865
aF1982.4042747748442
aa(lp888
F650.3701398686777
aF602.603101342811
aF612.0125782581849
aF768.1674693180079
aF808.756260713252
aF1616.3439247078259
aF1066.1512487743564
aF1204.926238908059
aF1517.5899248775936
aF1683.6944065014236
aF1594.1997161025738
aF1930.5881794435227
aa(lp889
F637.4703170400396
aF605.4848204865157
aF605.6984338707931
aF750.2122338649173
aF791.663334231486
aF1563.959866834928
aF1057.246676918977
aF1185.9919936922145
aF1426.0678385668914
aF1659.5108396028727
aF1588.6580275002382
aF1960.5223755932748
aa(lp890
F624.3842163923757
aF596.1406826718041
aF609.2634360883827
aF739.2843137249945
aF778.2743080167029
aF1551.066453001695
aF998.2389623432706
aF1216.3796801973215
aF1421.4090743827592
aF1628.3213299325237
aF1555.3951570920735
aF1896.2325316562312
aa(lp891
F638.1747234312987
aF609.4571182153406
aF628.9772242951418
aF780.8361017866039
aF783.8768116046243
aF1586.8622936826475
aF1049.9927527535026
aF1284.075527652349
aF1528.1758855578337
aF1705.5020643441612
aF1623.950500951286
aF1968.5035534752922
aa(lp892
F631.3064548554681
aF610.4229359033286
aF606.2161120065833
aF753.3864565064323
aF769.743060400955
aF1560.2796939827713
aF1017.062217152328
aF1236.1351605151717
aF1455.9975994952572
aF1649.2266379879798
aF1606.7287855503187
aF1770.574384968568
aa(lp893
F661.2589152898972
aF660.4990728291802
aF655.5851128476817
aF805.3158003957839
aF836.6686522338301
aF1686.7061616778237
aF1072.9881082407323
aF1365.868457921751
aF1485.3044639696789
aF1722.7583356711189
aF1760.585438459968
aF1285.769974005437
aa(lp894
F613.9919322191826
aF592.6430716971034
aF598.9245186915036
aF740.6215812358845
aF777.7425429646003
aF1495.3836828730396
aF976.2837499425194
aF1223.4450851188549
aF1433.5386339326724
aF1577.529869832402
aF1570.6716832238653
aF1867.3026127909436
aa(lp895
F702.5448185402207
aF692.5388751822398
aF687.0520101940399
aF847.1457912294923
aF891.75415766835
aF1708.6188479404186
aF1090.423086762915
aF1422.951921592855
aF1603.3490656794393
aF1793.6332656348136
aF1801.6503223363675
aF1340.1653016359303
aa(lp896
F625.0257888883905
aF600.2060298255738
aF610.5108877621415
aF737.6448459580904
aF782.1843583896699
aF1540.0939679068647
aF1004.2473551578145
aF1255.1920599695588
aF1417.346877802519
aF1600.3610367313615
aF1613.7130383875563
aF1933.5774538417736
aa(lp897
F619.1122993366242
aF598.6864886669933
aF616.3781558750399
aF746.8904129306956
aF783.8802917371702
aF1534.081658001952
aF986.629889469909
aF1237.6546437958718
aF1436.5789258336645
aF1640.763657714408
aF1624.0215646164274
aF1575.021274118439
aa(lp898
F661.6725797412973
aF602.937380681169
aF631.6870063621407
aF750.880711109621
aF790.2975725520564
aF1538.1924542936547
aF1053.0748570034268
aF1205.7117374319707
aF1510.9170039637277
aF1704.853403191876
aF1580.776277100844
aF1932.90989145945
aa(lp899
F608.5984982275953
aF578.860023157258
aF590.7649722193826
aF725.9715421033599
aF756.8672946434626
aF1510.767477537843
aF980.4887376359683
aF1091.4355902495984
aF1348.2012757052669
aF1494.3572952367508
aF1409.282881853016
aF1686.3181948842905
aa(lp900
F626.9446172668027
aF587.6217885538305
aF604.0558900534122
aF727.3567507193894
aF766.7760676251803
aF1553.612304631789
aF999.5026857181983
aF1216.3488932791913
aF1448.057400146394
aF1635.0776339313325
aF1576.3405229897355
aF1818.5617159596402
aa(lp901
F609.724251057851
aF566.1267344751152
aF595.0981883924422
aF711.8897470696609
aF740.2110320306216
aF1459.1417068597705
aF943.7410252665924
aF1168.2134991753442
aF1362.892161668764
aF1567.937829046098
aF1537.7902923699512
aF1848.4281563004124
aa(lp902
F600.7988847574109
aF602.3241722611431
aF598.8179366776584
aF736.4595268387743
aF775.468966467088
aF1508.9544670269518
aF993.82259444667
aF1217.2875654905868
aF1385.9836366877216
aF1551.393904914022
aF1570.6849399562834
aF1827.5437081698099
aa(lp903
F609.9387023217438
aF577.5057315697613
aF594.687407523786
aF712.8525932155695
aF749.6924014355952
aF1453.993717058118
aF953.0302244649577
aF1123.4331845649801
aF1319.802898593378
aF1497.511374722784
aF1485.3798495240385
aF1762.750785211991
aa(lp904
F600.4811664778393
aF589.9989754218344
aF590.4348971478483
aF732.6933894806522
aF759.7440365412288
aF1558.7350179356324
aF983.1249539648148
aF1136.0560805566279
aF1392.654404905834
aF1543.766488088653
aF1474.8880231989776
aF1809.432402339091
aasg33
(lp905
g38
ag41
ag44
ag47
ag50
ag53
ag56
ag59
ag62
ag65
ag68
ag71
ag74
ag77
ag80
ag83
ag86
ag89
ag92
ag95
ag98
ag101
ag104
ag107
ag110
ag113
ag116
asg117
(lp906
(lp907
F694.888305806
aF686.16782602
aF868.156896067
aF858.045104247
aF1041.72904647
aF1681.46459502
aF1115.8388144
aF1194.6527503
aF1341.48892303
aF1477.58391118
aF1460.84433813
aF1639.88164576
aa(lp908
F685.308014199
aF676.650841587
aF856.254663335
aF846.217615353
aF1027.52612575
aF1658.79145196
aF1100.55877713
aF1178.42236703
aF1323.30363872
aF1457.68793404
aF1441.19973825
aF1618.03484218
aa(lp909
F724.223816568
aF715.315938921
aF904.597445183
aF894.263915063
aF1085.2078999
aF1750.86454238
aF1162.62392764
aF1244.33507908
aF1397.15443909
aF1538.47492993
aF1520.96280415
aF1706.72301217
aa(lp910
F743.269097659
aF734.244631098
aF928.251723347
aF917.779837998
aF1113.4265903
aF1795.90062253
aF1192.99552078
aF1276.57762786
aF1433.2793453
aF1577.98252448
aF1559.96660383
aF1750.07575045
aa(lp911
F737.215456766
aF728.227623632
aF920.733397164
aF910.305019894
aF1104.45785322
aF1781.58727342
aF1183.34193174
aF1266.33017645
aF1421.79802817
aF1565.42681282
aF1547.57121451
aF1736.29932557
aa(lp912
F688.171763942
aF679.495556964
aF859.812575253
aF849.753062529
aF1031.77187576
aF1665.56940249
aF1105.12636279
aF1183.2742516
aF1328.73993543
aF1463.63581386
aF1447.07252416
aF1624.56626655
aa(lp913
F673.000399932
aF664.426115732
aF840.962884496
aF831.023583168
aF1009.27707456
aF1629.6569413
aF1080.92790262
aF1157.5674829
aF1299.93659349
aF1432.12005854
aF1415.95412658
aF1589.95508825
aa(lp914
F681.503430096
aF672.871691943
aF851.527748393
aF841.520707831
aF1021.88524307
aF1649.78609004
aF1094.4905068
aF1171.97610304
aF1316.08089505
aF1449.78524072
aF1433.39674603
aF1609.35635598
aa(lp915
F673.941272768
aF665.360589553
aF842.131935005
aF832.18509213
aF1010.6722636
aF1631.88444587
aF1082.42865012
aF1159.16192695
aF1301.72311358
aF1434.07495082
aF1417.88440995
aF1592.10223402
aa(lp916
F689.128314157
aF680.445770371
aF861.000973344
aF850.933980231
aF1033.19000382
aF1667.83328415
aF1106.65201654
aF1184.89482486
aF1330.5557043
aF1465.6224196
aF1449.03403787
aF1626.7477113
aa(lp917
F677.714527699
aF669.108286331
aF846.820186367
aF836.843214507
aF1016.26730573
aF1640.81711564
aF1088.44714976
aF1165.55597551
aF1308.88740835
aF1441.91426967
aF1425.62499278
aF1600.71217814
aa(lp918
F666.441567926
aF657.912181296
aF832.813194785
aF822.926786715
aF999.550663865
aF1614.1276883
aF1070.46599894
aF1146.45183625
aF1287.48183906
aF1418.49098885
aF1402.49648087
aF1574.98474783
aa(lp919
F654.387036172
aF645.941502207
aF817.833747879
aF808.046031483
aF981.671920339
aF1585.58025929
aF1051.23711925
aF1126.01874211
aF1264.58690822
aF1393.43503368
aF1377.75501366
aF1547.45870647
aa(lp920
F666.441567926
aF657.912181296
aF832.813194785
aF822.926786715
aF999.550663865
aF1614.1276883
aF1070.46599894
aF1146.45183625
aF1287.48183906
aF1418.49098885
aF1402.49648087
aF1574.98474783
aa(lp921
F663.645223431
aF655.135133761
aF829.338468295
aF819.474782775
aF995.403540555
aF1607.50612215
aF1066.00548954
aF1141.7122925
aF1282.17129147
aF1412.67945724
aF1396.75796884
aF1568.60079467
aa(lp922
F671.121579576
aF662.560104673
aF838.628393636
aF828.704186455
aF1006.49097676
aF1625.20871856
aF1077.93105437
aF1154.38347021
aF1296.3690105
aF1428.21619121
aF1412.09938713
aF1585.66719684
aa(lp923
F639.774319866
aF631.432789225
aF799.673493196
aF790.00802345
aF959.994530076
aF1550.9635351
aF1027.92593294
aF1101.24300705
aF1236.82564563
aF1363.04924962
aF1347.74945023
aF1514.06981932
aa(lp924
F674.883121426
aF666.296042972
aF843.302189785
aF833.347809067
aF1012.06888045
aF1634.11421428
aF1083.93094771
aF1160.75799733
aF1303.51145409
aF1436.03181697
aF1419.81663719
aF1594.25151473
aa(lp925
F637.96497955
aF629.636508645
aF797.424749247
aF787.774617961
aF957.310095791
aF1546.67643577
aF1025.03942286
aF1098.17478621
aF1233.38765867
aF1359.28591402
aF1344.03311583
aF1509.93395358
aa(lp926
F637.96497955
aF629.636508645
aF797.424749247
aF787.774617961
aF957.310095791
aF1546.67643577
aF1025.03942286
aF1098.17478621
aF1233.38765867
aF1359.28591402
aF1344.03311583
aF1509.93395358
aa(lp927
F659.004039957
aF650.526183922
aF823.571187797
aF813.745443649
aF988.520040645
aF1596.51515252
aF1058.60210409
aF1133.84536891
aF1273.35654899
aF1403.03279213
aF1387.23240833
aF1558.00329823
aa(lp928
F634.35775019
aF626.055437006
aF792.941393904
aF783.321976593
aF951.957983238
aF1538.12878272
aF1019.28458331
aF1092.0574281
aF1226.53304118
aF1351.78240336
aF1336.62325878
aF1501.6872816
aa(lp929
F642.495499733
aF634.134403725
aF803.055457168
aF793.367003241
aF964.031672019
aF1557.41080458
aF1032.26708094
aF1105.85728615
aF1241.99599706
aF1368.70875338
aF1353.33823362
aF1520.28930672
aa(lp930
F622.739316795
aF614.52235813
aF778.500152213
aF768.980885758
aF934.71735119
aF1510.59243343
aF1000.74814354
aF1072.35110032
aF1204.45146682
aF1327.60848459
aF1312.7505189
aF1475.11552536
aa(lp931
F650.710796922
aF642.29118304
aF813.265224961
aF803.507991654
aF976.218830796
aF1576.87261023
aF1045.37270568
aF1119.78637809
aF1257.60358265
aF1385.79194693
aF1370.20768656
aF1539.06102569
aa(lp932
F621.852223492
aF613.641851604
aF777.397472908
aF767.88593065
aF933.400853763
aF1508.48962438
aF999.332791839
aF1070.84628179
aF1202.76525264
aF1325.7623665
aF1310.927367
aF1473.08605988
aa(lp933
F629.870139273
aF621.600593744
aF787.363642426
aF777.782685793
aF945.299193972
aF1527.4938813
aF1012.12504895
aF1084.44643656
aF1218.00472724
aF1342.44634926
aF1327.40361964
aF1491.42583056
aass(S'seir_mag'
p934
I4000
I01
tp935
(dp936
g4
(lp937
(lp938
F649.8004382779134
aF632.7822842146728
aF747.3237613008185
aF818.1285475766209
aF931.3459054245134
aF1725.5088623882668
aF1105.6656657267454
aF1235.054890614408
aF1459.0918521615072
aF1715.8253271411236
aF1630.0917167345606
aF1849.2932477750253
aa(lp939
F641.7909796647322
aF607.3866493945192
aF721.2036620760051
aF795.6019520634228
aF897.8085313595786
aF1685.066489389767
aF1100.1436785674464
aF1235.5267329240335
aF1426.7020121190326
aF1602.764368200867
aF1556.4892446433737
aF1636.924710379275
aa(lp940
F864.1321382719253
aF877.8289580048134
aF824.7849181873413
aF1014.4135135421566
aF1057.817470964205
aF1723.8945498306643
aF1169.841337555135
aF953.2554740702518
aF1343.716695254699
aF1659.3667387401256
aF1052.8329554399531
aF1498.290225121453
aa(lp941
F703.0870576195249
aF699.7456188487354
aF789.7078800939929
aF903.1366269840071
aF1003.6933812678409
aF1910.9546375810323
aF1235.4488239117597
aF1371.401393377572
aF1607.9938300334327
aF1783.6781991169807
aF1750.715282235307
aF733.6261756598193
aa(lp942
F699.0834268979974
aF685.6404820536198
aF783.0257523539522
aF883.9396377865489
aF994.198302745864
aF1929.732169015715
aF1203.3194590076116
aF1247.3637800381573
aF1542.613282201818
aF1743.730584181639
aF1605.3963071173728
aF1933.298221874225
aa(lp943
F661.9231373532095
aF647.1857166250863
aF738.1986732229713
aF842.0128128726002
aF960.0670913551274
aF1819.6917358498379
aF1141.9827252393445
aF1299.8764818498214
aF1501.9092423781342
aF1734.6067787378956
aF1647.1351258449495
aF1937.8009426382932
aa(lp944
F641.5687407923298
aF626.6059893084987
aF727.6088157219242
aF825.0316939597818
aF896.469321442214
aF1668.0535549934255
aF1080.8634594842215
aF1212.3256666882082
aF1424.1086728753598
aF1636.3640399357278
aF1526.3871700640273
aF1879.2180243504883
aa(lp945
F631.6629719291983
aF628.218621278467
aF721.741607316352
aF804.2345701969482
aF905.6291357248169
aF1721.4055268499812
aF1096.8745700899894
aF1263.5715226338773
aF1471.2736384649097
aF1715.941037240699
aF1608.4498504549206
aF1148.285331931649
aa(lp946
F649.3053254095815
aF652.0340967628563
aF722.4370208384156
aF835.6287840330618
aF957.2455041707497
aF1849.950549867222
aF1131.6876796949882
aF1246.4758861581968
aF1523.1899467424078
aF1689.9960732329564
aF1554.8367166473492
aF1899.9391570435237
aa(lp947
F647.1289429266134
aF639.7567995137294
aF712.434667243596
aF808.4129743357151
aF928.6710345091293
aF1741.1201485011502
aF1154.969727522519
aF1223.7587058956524
aF1484.4819226240716
aF1682.9287361001034
aF1532.0158957746805
aF1826.2881569566966
aa(lp948
F658.2119391036741
aF618.3343850388777
aF712.1865308658387
aF792.5372403546867
aF902.1813787891027
aF1758.588704615479
aF1112.0276719766016
aF1190.6240525983676
aF1440.5924125181798
aF1666.2799392302716
aF1553.2875755747712
aF1887.8796156027206
aa(lp949
F620.3336191566113
aF612.3668344824359
aF699.9144074235327
aF778.4317522730308
aF867.7756248384782
aF1675.0354048399506
aF1088.1306728497893
aF1194.452666299888
aF1439.2900225812957
aF1592.72276220157
aF1457.9761254271973
aF1813.6698776587139
aa(lp950
F655.2821590822349
aF615.7713146906573
aF727.5582960217937
aF802.1864165592154
aF885.1358595596713
aF1804.2255027769866
aF1071.7471588966882
aF1259.641972643454
aF1542.3857602010787
aF1702.4365757639753
aF1569.4226647649007
aF1856.5506147492392
aa(lp951
F618.1895082621347
aF621.6787872372302
aF695.9697501037813
aF792.80926531582
aF866.9751020719399
aF1718.6554043178467
aF1089.647832828927
aF1226.9172603178095
aF1447.1950192470467
aF1593.9002953846082
aF1539.575216238068
aF1646.6817368378117
aa(lp952
F655.2704526505821
aF654.6819617308062
aF745.41203408335
aF807.6324410033714
aF917.2567135112367
aF1717.8381513430468
aF1109.877477166869
aF1282.3832064794403
aF1445.1384869640722
aF1667.5526167948592
aF1611.3048157493113
aF1203.129205308029
aa(lp953
F618.3501949021311
aF595.5897611513341
aF700.9722197787981
aF767.4730344095432
aF860.9402815748654
aF1628.9734349708044
aF1059.686809376541
aF1198.7790469970055
aF1444.9933361057701
aF1551.200545130755
aF1508.5546151898463
aF1771.8277023648975
aa(lp954
F675.8517112547061
aF668.0508259156509
aF768.9574710888991
aF838.7929620304658
aF954.3117325015061
aF1801.2174980017285
aF1123.7206328782886
aF1319.4554310392323
aF1509.119595698382
aF1710.5338220241415
aF1659.127654564319
aF1214.0115618560988
aa(lp955
F610.5360071168702
aF606.7298163434081
aF698.9251339920166
aF762.7748492077022
aF880.6446399969262
aF1647.762655428005
aF1080.5080529429367
aF1231.0008323156196
aF1398.4425670543594
aF1614.9285923505408
aF1530.3110803603686
aF1856.950036185373
aa(lp956
F614.2146006283725
aF612.1841492931233
aF700.0630841220102
aF777.0385543167155
aF889.8545242720153
aF1666.499544324006
aF1046.4435577327256
aF1228.3801757827823
aF1423.0232555082064
aF1602.2255723069552
aF1575.6782940365053
aF1612.2608272572663
aa(lp957
F641.441261897807
aF620.0132690987981
aF721.2488346732366
aF778.856060149445
aF894.7309346026215
aF1702.4710573330378
aF1068.0601629756638
aF1189.688142837264
aF1468.3734982977658
aF1666.355637129577
aF1520.8097400079487
aF1799.8799091107298
aa(lp958
F610.5695854992414
aF614.2326454107347
aF695.7390418874626
aF780.72280631799
aF856.1135951578029
aF1646.8150506931966
aF1088.207686481889
aF1130.5601132568515
aF1391.974446602961
aF1535.9939070081223
aF1402.8737879229238
aF1712.7423778942539
aa(lp959
F629.0224967304537
aF604.5947570111475
aF701.0423053846762
aF766.6401024161282
aF872.4223169057377
aF1718.2796626869315
aF1064.2577916635337
aF1204.557695174263
aF1448.9264486759296
aF1646.454448187642
aF1528.2234392074834
aF1723.3123276324743
aa(lp960
F614.6231999915705
aF587.6215983446566
aF693.939840733022
aF774.8953053899238
aF835.177897184777
aF1634.7438838620064
aF1035.017309240434
aF1176.2277885236379
aF1390.5494434811224
aF1555.035247448477
aF1482.2034385399606
aF1791.5911435029902
aa(lp961
F609.9428733224493
aF601.3158499522125
aF687.462576898274
aF759.2487055204762
aF858.4952130904924
aF1616.915659603671
aF1061.0596073790198
aF1176.0406451236731
aF1366.5563340642557
aF1530.185178062764
aF1495.7566266048475
aF1680.7103450379207
aa(lp962
F606.5236457439744
aF591.9205424238443
aF682.5036007494903
aF764.7267214963944
aF840.1399761056598
aF1616.2722362968561
aF999.4437635379523
aF1139.5263106146688
aF1317.4758455382378
aF1474.2417409952693
aF1439.3931470187276
aF1674.6197206324173
aa(lp963
F626.3382505027794
aF605.3539040035323
aF708.954037346393
aF777.7541751537406
aF857.6176520282265
aF1756.3128231266392
aF1082.7381007695847
aF1163.6462020580173
aF1410.5196440296943
aF1551.3565021375189
aF1449.2590001798749
aF1740.9157135089083
aa(lp964
F680.7666669709578
aF654.1851391810087
aF765.162666678081
aF826.0268135572513
aF953.1924527999122
aF1747.6875067852075
aF1117.744153358313
aF1255.205467178354
aF1515.1246724595374
aF1748.1143051715644
aF1563.6021829980236
aF1902.5094126320569
aa(lp965
F597.8688991835611
aF603.9339975580168
aF683.4785798859623
aF775.504000119505
aF880.6414873533724
aF1713.087794602267
aF1063.0494178191052
aF1242.8263034278602
aF1435.2084915159778
aF1647.2987092891876
aF1517.895669416474
aF1829.3241828674434
aa(lp966
F681.7472960037923
aF652.7707067961062
aF787.5194397828336
aF859.0616053122521
aF984.5325214965716
aF1878.2981466976444
aF1216.5026439496855
aF1286.5869777611279
aF1609.3229694214856
aF1762.3916177158171
aF1606.4875458922202
aF1954.2556561215463
aa(lp967
F659.5777753537748
aF656.5048599770502
aF744.590274941742
aF823.1783671042773
aF958.6285658379945
aF1733.6027540011141
aF1154.629167277582
aF1312.4190975380047
aF1609.551500837545
aF1750.6835991038254
aF1674.5459555148313
aF1900.5882558373444
aa(lp968
F706.7793402326755
aF716.2193474330443
aF799.1398916753278
aF892.2892770414666
aF1050.840605325809
aF1976.5600507044694
aF1216.108957517299
aF1415.1850113003923
aF1742.2124294538282
aF1901.5392061272944
aF1742.2360702620538
aF2083.360874885642
aa(lp969
F685.2636629569045
aF655.4439612748838
aF775.913709663874
aF862.4438545371733
aF974.9239883355139
aF1805.713839965424
aF1197.9198752705968
aF1240.1706033321484
aF1543.2353372062778
aF1799.0758467637481
aF1593.1982276754222
aF1991.3506682981802
aa(lp970
F714.1849122777575
aF767.7081964411392
aF838.62373286158
aF931.4231256076688
aF1086.9234159702949
aF2017.3434632333942
aF1317.2489906339258
aF1501.5956610375176
aF1774.1689975851202
aF1919.6754029600693
aF1880.0496167297322
aF1399.0588436713012
aasg33
(lp971
g431
ag434
ag437
ag440
ag443
ag446
ag449
ag452
ag455
ag458
ag461
ag464
ag467
ag470
ag473
ag476
ag479
ag482
ag485
ag488
ag491
ag494
ag497
ag500
ag503
ag506
ag509
ag512
ag515
ag518
ag521
ag524
ag527
asg117
(lp972
(lp973
F694.888305806
aF686.16782602
aF868.156896067
aF858.045104247
aF1041.72904647
aF1681.46459502
aF1115.8388144
aF1194.6527503
aF1341.48892303
aF1477.58391118
aF1460.84433813
aF1639.88164576
aa(lp974
F685.308014199
aF676.650841587
aF856.254663335
aF846.217615353
aF1027.52612575
aF1658.79145196
aF1100.55877713
aF1178.42236703
aF1323.30363872
aF1457.68793404
aF1441.19973825
aF1618.03484218
aa(lp975
F724.223816568
aF715.315938921
aF904.597445183
aF894.263915063
aF1085.2078999
aF1750.86454238
aF1162.62392764
aF1244.33507908
aF1397.15443909
aF1538.47492993
aF1520.96280415
aF1706.72301217
aa(lp976
F743.269097659
aF734.244631098
aF928.251723347
aF917.779837998
aF1113.4265903
aF1795.90062253
aF1192.99552078
aF1276.57762786
aF1433.2793453
aF1577.98252448
aF1559.96660383
aF1750.07575045
aa(lp977
F737.215456766
aF728.227623632
aF920.733397164
aF910.305019894
aF1104.45785322
aF1781.58727342
aF1183.34193174
aF1266.33017645
aF1421.79802817
aF1565.42681282
aF1547.57121451
aF1736.29932557
aa(lp978
F688.171763942
aF679.495556964
aF859.812575253
aF849.753062529
aF1031.77187576
aF1665.56940249
aF1105.12636279
aF1183.2742516
aF1328.73993543
aF1463.63581386
aF1447.07252416
aF1624.56626655
aa(lp979
F673.000399932
aF664.426115732
aF840.962884496
aF831.023583168
aF1009.27707456
aF1629.6569413
aF1080.92790262
aF1157.5674829
aF1299.93659349
aF1432.12005854
aF1415.95412658
aF1589.95508825
aa(lp980
F673.941272768
aF665.360589553
aF842.131935005
aF832.18509213
aF1010.6722636
aF1631.88444587
aF1082.42865012
aF1159.16192695
aF1301.72311358
aF1434.07495082
aF1417.88440995
aF1592.10223402
aa(lp981
F689.128314157
aF680.445770371
aF861.000973344
aF850.933980231
aF1033.19000382
aF1667.83328415
aF1106.65201654
aF1184.89482486
aF1330.5557043
aF1465.6224196
aF1449.03403787
aF1626.7477113
aa(lp982
F677.714527699
aF669.108286331
aF846.820186367
aF836.843214507
aF1016.26730573
aF1640.81711564
aF1088.44714976
aF1165.55597551
aF1308.88740835
aF1441.91426967
aF1425.62499278
aF1600.71217814
aa(lp983
F666.441567926
aF657.912181296
aF832.813194785
aF822.926786715
aF999.550663865
aF1614.1276883
aF1070.46599894
aF1146.45183625
aF1287.48183906
aF1418.49098885
aF1402.49648087
aF1574.98474783
aa(lp984
F654.387036172
aF645.941502207
aF817.833747879
aF808.046031483
aF981.671920339
aF1585.58025929
aF1051.23711925
aF1126.01874211
aF1264.58690822
aF1393.43503368
aF1377.75501366
aF1547.45870647
aa(lp985
F666.441567926
aF657.912181296
aF832.813194785
aF822.926786715
aF999.550663865
aF1614.1276883
aF1070.46599894
aF1146.45183625
aF1287.48183906
aF1418.49098885
aF1402.49648087
aF1574.98474783
aa(lp986
F663.645223431
aF655.135133761
aF829.338468295
aF819.474782775
aF995.403540555
aF1607.50612215
aF1066.00548954
aF1141.7122925
aF1282.17129147
aF1412.67945724
aF1396.75796884
aF1568.60079467
aa(lp987
F671.121579576
aF662.560104673
aF838.628393636
aF828.704186455
aF1006.49097676
aF1625.20871856
aF1077.93105437
aF1154.38347021
aF1296.3690105
aF1428.21619121
aF1412.09938713
aF1585.66719684
aa(lp988
F639.774319866
aF631.432789225
aF799.673493196
aF790.00802345
aF959.994530076
aF1550.9635351
aF1027.92593294
aF1101.24300705
aF1236.82564563
aF1363.04924962
aF1347.74945023
aF1514.06981932
aa(lp989
F674.883121426
aF666.296042972
aF843.302189785
aF833.347809067
aF1012.06888045
aF1634.11421428
aF1083.93094771
aF1160.75799733
aF1303.51145409
aF1436.03181697
aF1419.81663719
aF1594.25151473
aa(lp990
F637.96497955
aF629.636508645
aF797.424749247
aF787.774617961
aF957.310095791
aF1546.67643577
aF1025.03942286
aF1098.17478621
aF1233.38765867
aF1359.28591402
aF1344.03311583
aF1509.93395358
aa(lp991
F637.96497955
aF629.636508645
aF797.424749247
aF787.774617961
aF957.310095791
aF1546.67643577
aF1025.03942286
aF1098.17478621
aF1233.38765867
aF1359.28591402
aF1344.03311583
aF1509.93395358
aa(lp992
F659.004039957
aF650.526183922
aF823.571187797
aF813.745443649
aF988.520040645
aF1596.51515252
aF1058.60210409
aF1133.84536891
aF1273.35654899
aF1403.03279213
aF1387.23240833
aF1558.00329823
aa(lp993
F634.35775019
aF626.055437006
aF792.941393904
aF783.321976593
aF951.957983238
aF1538.12878272
aF1019.28458331
aF1092.0574281
aF1226.53304118
aF1351.78240336
aF1336.62325878
aF1501.6872816
aa(lp994
F642.495499733
aF634.134403725
aF803.055457168
aF793.367003241
aF964.031672019
aF1557.41080458
aF1032.26708094
aF1105.85728615
aF1241.99599706
aF1368.70875338
aF1353.33823362
aF1520.28930672
aa(lp995
F622.739316795
aF614.52235813
aF778.500152213
aF768.980885758
aF934.71735119
aF1510.59243343
aF1000.74814354
aF1072.35110032
aF1204.45146682
aF1327.60848459
aF1312.7505189
aF1475.11552536
aa(lp996
F650.710796922
aF642.29118304
aF813.265224961
aF803.507991654
aF976.218830796
aF1576.87261023
aF1045.37270568
aF1119.78637809
aF1257.60358265
aF1385.79194693
aF1370.20768656
aF1539.06102569
aa(lp997
F621.852223492
aF613.641851604
aF777.397472908
aF767.88593065
aF933.400853763
aF1508.48962438
aF999.332791839
aF1070.84628179
aF1202.76525264
aF1325.7623665
aF1310.927367
aF1473.08605988
aa(lp998
F629.870139273
aF621.600593744
aF787.363642426
aF777.782685793
aF945.299193972
aF1527.4938813
aF1012.12504895
aF1084.44643656
aF1218.00472724
aF1342.44634926
aF1327.40361964
aF1491.42583056
aa(lp999
F695.851757757
aF687.124969586
aF869.353811663
aF859.234567476
aF1043.15727321
aF1683.74449568
aF1117.3754347
aF1196.28482718
aF1343.31756984
aF1479.58447947
aF1462.81960112
aF1642.07819
aa(lp1000
F648.878453253
aF640.471819895
aF810.988091757
aF801.246119949
aF973.500737447
aF1572.53217883
aF1042.44967086
aF1116.67982187
aF1254.12269293
aF1381.98208589
aF1366.44552875
aF1534.87482363
aa(lp1001
F703.594988685
aF694.81788304
aF878.973089801
aF868.794374373
aF1054.63520025
aF1702.06637826
aF1129.7249941
aF1209.40080686
aF1358.01320381
aF1495.66108131
aF1478.69265812
aF1659.72846287
aa(lp1002
F692.003873149
aF683.302343091
aF864.573459164
aF854.484048684
aF1037.45303314
aF1674.63864165
aF1111.23836553
aF1189.7663924
aF1336.01403499
aF1471.59418945
aF1454.93034918
aF1633.30497171
aa(lp1003
F741.247170705
aF732.234896056
aF925.740620315
aF915.283218525
aF1110.43108934
aF1791.12010004
aF1189.77122222
aF1273.15506342
aF1429.44468364
aF1573.78909597
aF1555.82674272
aF1745.4747536
aa(lp1004
F703.594988685
aF694.81788304
aF878.973089801
aF868.794374373
aF1054.63520025
aF1702.06637826
aF1129.7249941
aF1209.40080686
aF1358.01320381
aF1495.66108131
aF1478.69265812
aF1659.72846287
aa(lp1005
F678.660285009
aF670.047663654
aF847.995264847
aF838.010770121
aF1017.66964168
aF1643.05595244
aF1089.95565646
aF1167.15856024
aF1310.68304074
aF1443.8790423
aF1427.56500618
aF1602.87001027
aass.